///////////////////////////////////////////////////////////////////////////////
//                                                                            /
// IAR C/C++ Compiler V8.10.3.10338/W32 for 8051        21/Dec/2018  21:15:49 /
// Copyright 2004-2011 IAR Systems AB.                                        /
//                                                                            /
//    Core               =  plain                                             /
//    Code model         =  banked                                            /
//    Data model         =  large                                             /
//    Calling convention =  xdata reentrant                                   /
//    Constant location  =  data_rom                                          /
//    Dptr setup         =  1,16                                              /
//    Source file        =  F:\key_pro\AAAAAgraduation_project\Ωªª•œµÕ≥≥Ã–Ú\  /
//                          ÷ª∑\ ÷ª∑\÷ª∑¢ÀÕ ˝æ›\Projects\zstack\Samples\Sampl /
//                          eApp\Source\SampleApp.c                           /
//    Command line       =  -f F:\key_pro\AAAAAgraduation_project\Ωªª•œµÕ≥≥Ã– /
//                          Ú\ ÷ª∑\ ÷ª∑\÷ª∑¢ÀÕ ˝æ›\Projects\zstack\Samples\Sa /
//                          mpleApp\CC2530DB\..\..\..\Tools\CC2530DB\f8wEndev /
//                          .cfg (-DCPU32MHZ -DROOT=__near_func               /
//                          -DBLINK_LEDS) -f F:\key_pro\AAAAAgraduation_proje /
//                          ct\Ωªª•œµÕ≥≥Ã–Ú\ ÷ª∑\ ÷ª∑\÷ª∑¢ÀÕ ˝æ›\Projects\zst /
//                          ack\Samples\SampleApp\CC2530DB\..\..\..\Tools\CC2 /
//                          530DB\f8wConfig.cfg (-DSECURE=0                   /
//                          -DZG_SECURE_DYNAMIC=0 -DREFLECTOR                 /
//                          -DDEFAULT_CHANLIST=0x00000800                     /
//                          -DZDAPP_CONFIG_PAN_ID=0xFFF1                      /
//                          -DNWK_START_DELAY=100 -DEXTENDED_JOINING_RANDOM_M /
//                          ASK=0x007F -DBEACON_REQUEST_DELAY=100             /
//                          -DBEACON_REQ_DELAY_MASK=0x00FF                    /
//                          -DROUTE_EXPIRY_TIME=30 -DAPSC_ACK_WAIT_DURATION_P /
//                          OLLED=3000 -DNWK_INDIRECT_MSG_TIMEOUT=7           /
//                          -DMAX_RREQ_ENTRIES=8 -DAPSC_MAX_FRAME_RETRIES=3   /
//                          -DNWK_MAX_DATA_RETRIES=2                          /
//                          -DMAX_POLL_FAILURE_RETRIES=2 -DMAX_BCAST=9        /
//                          -DAPS_MAX_GROUPS=16 -DMAX_RTG_ENTRIES=40          /
//                          -DNWK_MAX_BINDING_ENTRIES=4                       /
//                          -DMAX_BINDING_CLUSTER_IDS=4                       /
//                          "-DDEFAULT_KEY={0x01, 0x03, 0x05, 0x07, 0x09,     /
//                          0x0B, 0x0D, 0x0F, 0x00, 0x02, 0x04, 0x06, 0x08,   /
//                          0x0A, 0x0C, 0x0D}" -DMAC_MAX_FRAME_SIZE=116       /
//                          "-DCONST=const __code" -DGENERIC=__generic        /
//                          -DRFD_RCVC_ALWAYS_ON=FALSE -DPOLL_RATE=1000       /
//                          -DQUEUED_POLL_RATE=100 -DRESPONSE_POLL_RATE=100)  /
//                          -DREJOIN_POLL_RATE=440 F:\key_pro\AAAAAgraduation /
//                          _project\Ωªª•œµÕ≥≥Ã–Ú\ ÷ª∑\ ÷ª∑\÷ª∑¢ÀÕ ˝æ›\Projec /
//                          ts\zstack\Samples\SampleApp\Source\SampleApp.c    /
//                          -D ZIGBEEPRO -D NWK_AUTO_POLL -D ZTOOL_P1 -D      /
//                          xMT_TASK -D xMT_SYS_FUNC -D xMT_ZDO_FUNC -D       /
//                          LCD_SUPPORTED=DEBUG -lC                           /
//                          F:\key_pro\AAAAAgraduation_project\Ωªª•œµÕ≥≥Ã–Ú\  /
//                          ÷ª∑\ ÷ª∑\÷ª∑¢ÀÕ ˝æ›\Projects\zstack\Samples\Sampl /
//                          eApp\CC2530DB\EndDeviceEB-Pro\List\ -lA           /
//                          F:\key_pro\AAAAAgraduation_project\Ωªª•œµÕ≥≥Ã–Ú\  /
//                          ÷ª∑\ ÷ª∑\÷ª∑¢ÀÕ ˝æ›\Projects\zstack\Samples\Sampl /
//                          eApp\CC2530DB\EndDeviceEB-Pro\List\               /
//                          --diag_suppress Pe001,Pa010 -o                    /
//                          F:\key_pro\AAAAAgraduation_project\Ωªª•œµÕ≥≥Ã–Ú\  /
//                          ÷ª∑\ ÷ª∑\÷ª∑¢ÀÕ ˝æ›\Projects\zstack\Samples\Sampl /
//                          eApp\CC2530DB\EndDeviceEB-Pro\Obj\ -e --debug     /
//                          --core=plain --dptr=16,1 --data_model=large       /
//                          --code_model=banked --calling_convention=xdata_re /
//                          entrant --place_constants=data_rom                /
//                          --nr_virtual_regs 16 -I                           /
//                          F:\key_pro\AAAAAgraduation_project\Ωªª•œµÕ≥≥Ã–Ú\  /
//                          ÷ª∑\ ÷ª∑\÷ª∑¢ÀÕ ˝æ›\Projects\zstack\Samples\Sampl /
//                          eApp\CC2530DB\ -I F:\key_pro\AAAAAgraduation_proj /
//                          ect\Ωªª•œµÕ≥≥Ã–Ú\ ÷ª∑\ ÷ª∑\÷ª∑¢ÀÕ ˝æ›\Projects\zs /
//                          tack\Samples\SampleApp\CC2530DB\..\SOURCE\ -I     /
//                          F:\key_pro\AAAAAgraduation_project\Ωªª•œµÕ≥≥Ã–Ú\  /
//                          ÷ª∑\ ÷ª∑\÷ª∑¢ÀÕ ˝æ›\Projects\zstack\Samples\Sampl /
//                          eApp\CC2530DB\..\..\..\ZMAIN\TI2530DB\ -I         /
//                          F:\key_pro\AAAAAgraduation_project\Ωªª•œµÕ≥≥Ã–Ú\  /
//                          ÷ª∑\ ÷ª∑\÷ª∑¢ÀÕ ˝æ›\Projects\zstack\Samples\Sampl /
//                          eApp\CC2530DB\..\..\..\..\..\COMPONENTS\MT\ -I    /
//                          F:\key_pro\AAAAAgraduation_project\Ωªª•œµÕ≥≥Ã–Ú\  /
//                          ÷ª∑\ ÷ª∑\÷ª∑¢ÀÕ ˝æ›\Projects\zstack\Samples\Sampl /
//                          eApp\CC2530DB\..\..\..\..\..\COMPONENTS\HAL\INCLU /
//                          DE\ -I F:\key_pro\AAAAAgraduation_project\Ωªª•œµÕ /
//                          ≥≥Ã–Ú\ ÷ª∑\ ÷ª∑\÷ª∑¢ÀÕ ˝æ›\Projects\zstack\Sample /
//                          s\SampleApp\CC2530DB\..\..\..\..\..\COMPONENTS\HA /
//                          L\TARGET\CC2530EB\ -I F:\key_pro\AAAAAgraduation_ /
//                          project\Ωªª•œµÕ≥≥Ã–Ú\ ÷ª∑\ ÷ª∑\÷ª∑¢ÀÕ ˝æ›\Project /
//                          s\zstack\Samples\SampleApp\CC2530DB\..\..\..\..\. /
//                          .\COMPONENTS\OSAL\MCU\CCSOC\ -I                   /
//                          F:\key_pro\AAAAAgraduation_project\Ωªª•œµÕ≥≥Ã–Ú\  /
//                          ÷ª∑\ ÷ª∑\÷ª∑¢ÀÕ ˝æ›\Projects\zstack\Samples\Sampl /
//                          eApp\CC2530DB\..\..\..\..\..\COMPONENTS\OSAL\INCL /
//                          UDE\ -I F:\key_pro\AAAAAgraduation_project\Ωªª•œµ /
//                          Õ≥≥Ã–Ú\ ÷ª∑\ ÷ª∑\÷ª∑¢ÀÕ ˝æ›\Projects\zstack\Sampl /
//                          es\SampleApp\CC2530DB\..\..\..\..\..\COMPONENTS\S /
//                          TACK\AF\ -I F:\key_pro\AAAAAgraduation_project\Ωª /
//                          ª•œµÕ≥≥Ã–Ú\ ÷ª∑\ ÷ª∑\÷ª∑¢ÀÕ ˝æ›\Projects\zstack\S /
//                          amples\SampleApp\CC2530DB\..\..\..\..\..\COMPONEN /
//                          TS\STACK\NWK\ -I F:\key_pro\AAAAAgraduation_proje /
//                          ct\Ωªª•œµÕ≥≥Ã–Ú\ ÷ª∑\ ÷ª∑\÷ª∑¢ÀÕ ˝æ›\Projects\zst /
//                          ack\Samples\SampleApp\CC2530DB\..\..\..\..\..\COM /
//                          PONENTS\STACK\SEC\ -I F:\key_pro\AAAAAgraduation_ /
//                          project\Ωªª•œµÕ≥≥Ã–Ú\ ÷ª∑\ ÷ª∑\÷ª∑¢ÀÕ ˝æ›\Project /
//                          s\zstack\Samples\SampleApp\CC2530DB\..\..\..\..\. /
//                          .\COMPONENTS\STACK\SAPI\ -I                       /
//                          F:\key_pro\AAAAAgraduation_project\Ωªª•œµÕ≥≥Ã–Ú\  /
//                          ÷ª∑\ ÷ª∑\÷ª∑¢ÀÕ ˝æ›\Projects\zstack\Samples\Sampl /
//                          eApp\CC2530DB\..\..\..\..\..\COMPONENTS\STACK\SYS /
//                          \ -I F:\key_pro\AAAAAgraduation_project\Ωªª•œµÕ≥≥ /
//                          Ã–Ú\ ÷ª∑\ ÷ª∑\÷ª∑¢ÀÕ ˝æ›\Projects\zstack\Samples\ /
//                          SampleApp\CC2530DB\..\..\..\..\..\COMPONENTS\STAC /
//                          K\ZDO\ -I F:\key_pro\AAAAAgraduation_project\Ωªª• /
//                          œµÕ≥≥Ã–Ú\ ÷ª∑\ ÷ª∑\÷ª∑¢ÀÕ ˝æ›\Projects\zstack\Sam /
//                          ples\SampleApp\CC2530DB\..\..\..\..\..\COMPONENTS /
//                          \ZMAC\F8W\ -I F:\key_pro\AAAAAgraduation_project\ /
//                          Ωªª•œµÕ≥≥Ã–Ú\ ÷ª∑\ ÷ª∑\÷ª∑¢ÀÕ ˝æ›\Projects\zstack /
//                          \Samples\SampleApp\CC2530DB\..\..\..\..\..\COMPON /
//                          ENTS\ZMAC\ -I F:\key_pro\AAAAAgraduation_project\ /
//                          Ωªª•œµÕ≥≥Ã–Ú\ ÷ª∑\ ÷ª∑\÷ª∑¢ÀÕ ˝æ›\Projects\zstack /
//                          \Samples\SampleApp\CC2530DB\..\..\..\..\..\COMPON /
//                          ENTS\SERVICES\SADDR\ -I                           /
//                          F:\key_pro\AAAAAgraduation_project\Ωªª•œµÕ≥≥Ã–Ú\  /
//                          ÷ª∑\ ÷ª∑\÷ª∑¢ÀÕ ˝æ›\Projects\zstack\Samples\Sampl /
//                          eApp\CC2530DB\..\..\..\..\..\COMPONENTS\SERVICES\ /
//                          SDATA\ -I F:\key_pro\AAAAAgraduation_project\Ωªª• /
//                          œµÕ≥≥Ã–Ú\ ÷ª∑\ ÷ª∑\÷ª∑¢ÀÕ ˝æ›\Projects\zstack\Sam /
//                          ples\SampleApp\CC2530DB\..\..\..\..\..\COMPONENTS /
//                          \MAC\INCLUDE\ -I F:\key_pro\AAAAAgraduation_proje /
//                          ct\Ωªª•œµÕ≥≥Ã–Ú\ ÷ª∑\ ÷ª∑\÷ª∑¢ÀÕ ˝æ›\Projects\zst /
//                          ack\Samples\SampleApp\CC2530DB\..\..\..\..\..\COM /
//                          PONENTS\MAC\HIGH_LEVEL\ -I                        /
//                          F:\key_pro\AAAAAgraduation_project\Ωªª•œµÕ≥≥Ã–Ú\  /
//                          ÷ª∑\ ÷ª∑\÷ª∑¢ÀÕ ˝æ›\Projects\zstack\Samples\Sampl /
//                          eApp\CC2530DB\..\..\..\..\..\COMPONENTS\MAC\LOW_L /
//                          EVEL\srf04\ -I F:\key_pro\AAAAAgraduation_project /
//                          \Ωªª•œµÕ≥≥Ã–Ú\ ÷ª∑\ ÷ª∑\÷ª∑¢ÀÕ ˝æ›\Projects\zstac /
//                          k\Samples\SampleApp\CC2530DB\..\..\..\..\..\COMPO /
//                          NENTS\MAC\LOW_LEVEL\srf04\SINGLE_CHIP\ -I         /
//                          F:\key_pro\AAAAAgraduation_project\Ωªª•œµÕ≥≥Ã–Ú\  /
//                          ÷ª∑\ ÷ª∑\÷ª∑¢ÀÕ ˝æ›\Projects\zstack\Samples\Sampl /
//                          eApp\CC2530DB\..\..\..\..\..\..\..\..\ -Ohz       /
//    List file          =  F:\key_pro\AAAAAgraduation_project\Ωªª•œµÕ≥≥Ã–Ú\  /
//                          ÷ª∑\ ÷ª∑\÷ª∑¢ÀÕ ˝æ›\Projects\zstack\Samples\Sampl /
//                          eApp\CC2530DB\EndDeviceEB-Pro\List\SampleApp.s51  /
//                                                                            /
//                                                                            /
///////////////////////////////////////////////////////////////////////////////

        NAME SampleApp

        RTMODEL "__SystemLibrary", "CLib"
        RTMODEL "__calling_convention", "xdata_reentrant"
        RTMODEL "__code_model", "banked"
        RTMODEL "__core", "plain"
        RTMODEL "__data_model", "large"
        RTMODEL "__dptr_size", "16"
        RTMODEL "__extended_stack", "disabled"
        RTMODEL "__location_for_constants", "data"
        RTMODEL "__number_of_dptrs", "1"
        RTMODEL "__rt_version", "1"

        RSEG DOVERLAY:DATA:NOROOT(0)
        RSEG IOVERLAY:IDATA:NOROOT(0)
        RSEG ISTACK:IDATA:NOROOT(0)
        RSEG PSTACK:XDATA:NOROOT(0)
        RSEG XSTACK:XDATA:NOROOT(0)

        EXTERN ?ALLOC_XSTACK8
        EXTERN ?BANKED_ENTER_XDATA
        EXTERN ?BANKED_LEAVE_XDATA
        EXTERN ?BDISPATCH
        EXTERN ?BRET
        EXTERN ?DEALLOC_XSTACK8
        EXTERN ?INTERRUPT_ENTER_XSP
        EXTERN ?INTERRUPT_LEAVE_XSP
        EXTERN ?MOVE_LONG8_XDATA_XDATA
        EXTERN ?PUSH_XSTACK_I_ONE
        EXTERN ?PUSH_XSTACK_I_THREE
        EXTERN ?PUSH_XSTACK_I_TWO
        EXTERN ?V0
        EXTERN ?XSP
        EXTERN ?XSTACK_DISP0_8
        EXTERN __INIT_XDATA_Z

        PUBLIC ??SampleApp_HandleKeys?relay
        FUNCTION ??SampleApp_HandleKeys?relay,0203H
        PUBLIC ??SampleApp_Init?relay
        FUNCTION ??SampleApp_Init?relay,0203H
        PUBLIC ??SampleApp_MessageMSGCB?relay
        FUNCTION ??SampleApp_MessageMSGCB?relay,0203H
        PUBLIC ??SampleApp_ProcessEvent?relay
        FUNCTION ??SampleApp_ProcessEvent?relay,0203H
        PUBLIC ??SampleApp_SendFlashMessage?relay
        FUNCTION ??SampleApp_SendFlashMessage?relay,0203H
        PUBLIC ??SampleApp_SendPeriodicMessage?relay
        FUNCTION ??SampleApp_SendPeriodicMessage?relay,0203H
        PUBWEAK `??T1_ISR??INTVEC 75`
        PUBLIC LedState
        PUBLIC SampleAppFlashCounter
        PUBLIC SampleAppPeriodicCounter
        PUBLIC SampleApp_ClusterList
        PUBLIC SampleApp_Flash_DstAddr
        PUBLIC SampleApp_Group
        PUBLIC SampleApp_HandleKeys
        FUNCTION SampleApp_HandleKeys,021203H
        ARGFRAME XSTACK, 12, STACK
        ARGFRAME IOVERLAY, 0, STATIC
        ARGFRAME DOVERLAY, 0, STATIC
        LOCFRAME XSTACK, 10, STACK
        PUBLIC SampleApp_Init
        FUNCTION SampleApp_Init,021203H
        ARGFRAME XSTACK, 0, STACK
        LOCFRAME XSTACK, 14, STACK
        PUBLIC SampleApp_MessageMSGCB
        FUNCTION SampleApp_MessageMSGCB,021203H
        ARGFRAME XSTACK, 12, STACK
        ARGFRAME IOVERLAY, 0, STATIC
        ARGFRAME DOVERLAY, 0, STATIC
        LOCFRAME ISTACK, 2, STACK
        PUBLIC SampleApp_NwkState
        PUBLIC SampleApp_Periodic_DstAddr
        PUBLIC SampleApp_ProcessEvent
        FUNCTION SampleApp_ProcessEvent,021203H
        ARGFRAME XSTACK, 0, STACK
        LOCFRAME XSTACK, 12, STACK
        PUBLIC SampleApp_SendFlashMessage
        FUNCTION SampleApp_SendFlashMessage,021203H
        ARGFRAME XSTACK, 10, STACK
        ARGFRAME IOVERLAY, 0, STATIC
        ARGFRAME DOVERLAY, 0, STATIC
        LOCFRAME XSTACK, 19, STACK
        PUBLIC SampleApp_SendPeriodicMessage
        FUNCTION SampleApp_SendPeriodicMessage,021203H
        ARGFRAME XSTACK, 12, STACK
        ARGFRAME IOVERLAY, 0, STATIC
        ARGFRAME DOVERLAY, 0, STATIC
        LOCFRAME ISTACK, 2, STACK
        LOCFRAME XSTACK, 29, STACK
        PUBLIC SampleApp_SimpleDesc
        PUBLIC SampleApp_TaskID
        PUBLIC SampleApp_TransID
        PUBLIC SampleApp_epDesc
        PUBLIC T1_ISR
        FUNCTION T1_ISR,021233H
        ARGFRAME XSTACK, 0, STACK
        LOCFRAME XSTACK, 14, STACK
        PUBWEAK _A_IRCON
        PUBWEAK _A_P2
        PUBLIC count_close
        PUBLIC count_open
        PUBLIC end_count
        PUBLIC end_flag
        PUBLIC led_flag
        PUBLIC send_flag
        
        CFI Names cfiNames0
        CFI StackFrame CFA_SP SP IDATA
        CFI StackFrame CFA_PSP16 PSP16 XDATA
        CFI StackFrame CFA_XSP16 XSP16 XDATA
        CFI StaticOverlayFrame CFA_IOVERLAY IOVERLAY
        CFI StaticOverlayFrame CFA_DOVERLAY DOVERLAY
        CFI Resource `PSW.CY`:1, `B.BR0`:1, `B.BR1`:1, `B.BR2`:1, `B.BR3`:1
        CFI Resource `B.BR4`:1, `B.BR5`:1, `B.BR6`:1, `B.BR7`:1, `VB.BR8`:1
        CFI Resource `VB.BR9`:1, `VB.BR10`:1, `VB.BR11`:1, `VB.BR12`:1
        CFI Resource `VB.BR13`:1, `VB.BR14`:1, `VB.BR15`:1, VB:8, B:8, A:8
        CFI Resource PSW:8, DPL0:8, DPH0:8, R0:8, R1:8, R2:8, R3:8, R4:8, R5:8
        CFI Resource R6:8, R7:8, V0:8, V1:8, V2:8, V3:8, V4:8, V5:8, V6:8, V7:8
        CFI Resource V8:8, V9:8, V10:8, V11:8, V12:8, V13:8, V14:8, V15:8, SP:8
        CFI Resource PSPH:8, PSPL:8, PSP16:16, XSPH:8, XSPL:8, XSP16:16
        CFI VirtualResource ?RET:24
        CFI Resource ?BRET_EXT:8
        CFI VirtualResource ?RET_HIGH:8, ?RET_LOW:8
        CFI ResourceParts PSP16 PSPH, PSPL
        CFI ResourceParts XSP16 XSPH, XSPL
        CFI ResourceParts ?RET ?BRET_EXT, ?RET_HIGH, ?RET_LOW
        CFI EndNames cfiNames0
        
        CFI Common cfiCommon0 Using cfiNames0
        CFI CodeAlign 1
        CFI DataAlign -1
        CFI ReturnAddress ?RET CODE
        CFI CFA_DOVERLAY Used
        CFI CFA_IOVERLAY Used
        CFI CFA_SP SP+-3
        CFI CFA_PSP16 PSP16+0
        CFI CFA_XSP16 XSP16+0
        CFI `PSW.CY` SameValue
        CFI `B.BR0` SameValue
        CFI `B.BR1` SameValue
        CFI `B.BR2` SameValue
        CFI `B.BR3` SameValue
        CFI `B.BR4` SameValue
        CFI `B.BR5` SameValue
        CFI `B.BR6` SameValue
        CFI `B.BR7` SameValue
        CFI `VB.BR8` SameValue
        CFI `VB.BR9` SameValue
        CFI `VB.BR10` SameValue
        CFI `VB.BR11` SameValue
        CFI `VB.BR12` SameValue
        CFI `VB.BR13` SameValue
        CFI `VB.BR14` SameValue
        CFI `VB.BR15` SameValue
        CFI VB SameValue
        CFI B Undefined
        CFI A Undefined
        CFI PSW SameValue
        CFI DPL0 SameValue
        CFI DPH0 SameValue
        CFI R0 Undefined
        CFI R1 Undefined
        CFI R2 Undefined
        CFI R3 Undefined
        CFI R4 Undefined
        CFI R5 Undefined
        CFI R6 SameValue
        CFI R7 SameValue
        CFI V0 SameValue
        CFI V1 SameValue
        CFI V2 SameValue
        CFI V3 SameValue
        CFI V4 SameValue
        CFI V5 SameValue
        CFI V6 SameValue
        CFI V7 SameValue
        CFI V8 SameValue
        CFI V9 SameValue
        CFI V10 SameValue
        CFI V11 SameValue
        CFI V12 SameValue
        CFI V13 SameValue
        CFI V14 SameValue
        CFI V15 SameValue
        CFI PSPH Undefined
        CFI PSPL Undefined
        CFI XSPH Undefined
        CFI XSPL Undefined
        CFI ?RET Concat
        CFI ?BRET_EXT Frame(CFA_SP, 3)
        CFI ?RET_HIGH Frame(CFA_SP, 2)
        CFI ?RET_LOW Frame(CFA_SP, 1)
        CFI EndCommon cfiCommon0
        
        
        CFI Common cfiCommon1 Using cfiNames0
        CFI CodeAlign 1
        CFI DataAlign -1
        CFI ReturnAddress ?RET CODE
        CFI CFA_DOVERLAY Used
        CFI CFA_IOVERLAY Used
        CFI CFA_SP SP+-2
        CFI CFA_PSP16 PSP16+0
        CFI CFA_XSP16 XSP16+0
        CFI `PSW.CY` SameValue
        CFI `B.BR0` SameValue
        CFI `B.BR1` SameValue
        CFI `B.BR2` SameValue
        CFI `B.BR3` SameValue
        CFI `B.BR4` SameValue
        CFI `B.BR5` SameValue
        CFI `B.BR6` SameValue
        CFI `B.BR7` SameValue
        CFI `VB.BR8` SameValue
        CFI `VB.BR9` SameValue
        CFI `VB.BR10` SameValue
        CFI `VB.BR11` SameValue
        CFI `VB.BR12` SameValue
        CFI `VB.BR13` SameValue
        CFI `VB.BR14` SameValue
        CFI `VB.BR15` SameValue
        CFI VB SameValue
        CFI B SameValue
        CFI A SameValue
        CFI PSW SameValue
        CFI DPL0 SameValue
        CFI DPH0 SameValue
        CFI R0 SameValue
        CFI R1 SameValue
        CFI R2 SameValue
        CFI R3 SameValue
        CFI R4 SameValue
        CFI R5 SameValue
        CFI R6 SameValue
        CFI R7 SameValue
        CFI V0 SameValue
        CFI V1 SameValue
        CFI V2 SameValue
        CFI V3 SameValue
        CFI V4 SameValue
        CFI V5 SameValue
        CFI V6 SameValue
        CFI V7 SameValue
        CFI V8 SameValue
        CFI V9 SameValue
        CFI V10 SameValue
        CFI V11 SameValue
        CFI V12 SameValue
        CFI V13 SameValue
        CFI V14 SameValue
        CFI V15 SameValue
        CFI PSPH Undefined
        CFI PSPL Undefined
        CFI XSPH Undefined
        CFI XSPL Undefined
        CFI ?RET Concat
        CFI ?BRET_EXT SameValue
        CFI ?RET_HIGH Frame(CFA_SP, 2)
        CFI ?RET_LOW Frame(CFA_SP, 1)
        CFI EndCommon cfiCommon1
        
afRegister          SYMBOL "afRegister"
RegisterForKeys     SYMBOL "RegisterForKeys"
osal_memcpy         SYMBOL "osal_memcpy"
aps_AddGroup        SYMBOL "aps_AddGroup"
HalLcdWriteString   SYMBOL "HalLcdWriteString"
osal_msg_receive    SYMBOL "osal_msg_receive"
osal_start_timerEx  SYMBOL "osal_start_timerEx"
osal_msg_deallocate SYMBOL "osal_msg_deallocate"
osal_rand           SYMBOL "osal_rand"
aps_FindGroup       SYMBOL "aps_FindGroup"
aps_RemoveGroup     SYMBOL "aps_RemoveGroup"
HalLedSet           SYMBOL "HalLedSet"
AF_DataRequest      SYMBOL "AF_DataRequest"
RF_on               SYMBOL "RF_on"
RF_off              SYMBOL "RF_off"
??AF_DataRequest?relay SYMBOL "?relay", AF_DataRequest
??HalLcdWriteString?relay SYMBOL "?relay", HalLcdWriteString
??HalLedSet?relay   SYMBOL "?relay", HalLedSet
??RF_off?relay      SYMBOL "?relay", RF_off
??RF_on?relay       SYMBOL "?relay", RF_on
??RegisterForKeys?relay SYMBOL "?relay", RegisterForKeys
??afRegister?relay  SYMBOL "?relay", afRegister
??aps_AddGroup?relay SYMBOL "?relay", aps_AddGroup
??aps_FindGroup?relay SYMBOL "?relay", aps_FindGroup
??aps_RemoveGroup?relay SYMBOL "?relay", aps_RemoveGroup
??osal_memcpy?relay SYMBOL "?relay", osal_memcpy
??osal_msg_deallocate?relay SYMBOL "?relay", osal_msg_deallocate
??osal_msg_receive?relay SYMBOL "?relay", osal_msg_receive
??osal_rand?relay   SYMBOL "?relay", osal_rand
??osal_start_timerEx?relay SYMBOL "?relay", osal_start_timerEx
SampleApp_HandleKeys SYMBOL "SampleApp_HandleKeys"
??SampleApp_HandleKeys?relay SYMBOL "?relay", SampleApp_HandleKeys
SampleApp_Init      SYMBOL "SampleApp_Init"
??SampleApp_Init?relay SYMBOL "?relay", SampleApp_Init
SampleApp_MessageMSGCB SYMBOL "SampleApp_MessageMSGCB"
??SampleApp_MessageMSGCB?relay SYMBOL "?relay", SampleApp_MessageMSGCB
SampleApp_ProcessEvent SYMBOL "SampleApp_ProcessEvent"
??SampleApp_ProcessEvent?relay SYMBOL "?relay", SampleApp_ProcessEvent
SampleApp_SendFlashMessage SYMBOL "SampleApp_SendFlashMessage"
??SampleApp_SendFlashMessage?relay SYMBOL "?relay", SampleApp_SendFlashMessage
SampleApp_SendPeriodicMessage SYMBOL "SampleApp_SendPeriodicMessage"
??SampleApp_SendPeriodicMessage?relay SYMBOL "?relay", SampleApp_SendPeriodicMessage
T1_ISR              SYMBOL "T1_ISR"
`??T1_ISR??INTVEC 75` SYMBOL "??INTVEC 75", T1_ISR

        EXTERN afRegister
        FUNCTION afRegister,0202H
        ARGFRAME ISTACK, 0, STACK
        ARGFRAME PSTACK, 0, STACK
        ARGFRAME XSTACK, 11, STACK
        ARGFRAME IOVERLAY, 0, STATIC
        ARGFRAME DOVERLAY, 0, STATIC
        EXTERN RegisterForKeys
        FUNCTION RegisterForKeys,0202H
        ARGFRAME ISTACK, 0, STACK
        ARGFRAME PSTACK, 0, STACK
        ARGFRAME XSTACK, 11, STACK
        ARGFRAME IOVERLAY, 0, STATIC
        ARGFRAME DOVERLAY, 0, STATIC
        EXTERN osal_memcpy
        FUNCTION osal_memcpy,0202H
        ARGFRAME ISTACK, 0, STACK
        ARGFRAME PSTACK, 0, STACK
        ARGFRAME XSTACK, 14, STACK
        ARGFRAME IOVERLAY, 0, STATIC
        ARGFRAME DOVERLAY, 0, STATIC
        EXTERN aps_AddGroup
        FUNCTION aps_AddGroup,0202H
        ARGFRAME ISTACK, 0, STACK
        ARGFRAME PSTACK, 0, STACK
        ARGFRAME XSTACK, 11, STACK
        ARGFRAME IOVERLAY, 0, STATIC
        ARGFRAME DOVERLAY, 0, STATIC
        EXTERN HalLcdWriteString
        FUNCTION HalLcdWriteString,0202H
        ARGFRAME ISTACK, 0, STACK
        ARGFRAME PSTACK, 0, STACK
        ARGFRAME XSTACK, 11, STACK
        ARGFRAME IOVERLAY, 0, STATIC
        ARGFRAME DOVERLAY, 0, STATIC
        EXTERN osal_msg_receive
        FUNCTION osal_msg_receive,0202H
        ARGFRAME ISTACK, 0, STACK
        ARGFRAME PSTACK, 0, STACK
        ARGFRAME XSTACK, 12, STACK
        ARGFRAME IOVERLAY, 0, STATIC
        ARGFRAME DOVERLAY, 0, STATIC
        EXTERN osal_start_timerEx
        FUNCTION osal_start_timerEx,0202H
        ARGFRAME ISTACK, 0, STACK
        ARGFRAME PSTACK, 0, STACK
        ARGFRAME XSTACK, 12, STACK
        ARGFRAME IOVERLAY, 0, STATIC
        ARGFRAME DOVERLAY, 0, STATIC
        EXTERN osal_msg_deallocate
        FUNCTION osal_msg_deallocate,0202H
        ARGFRAME ISTACK, 0, STACK
        ARGFRAME PSTACK, 0, STACK
        ARGFRAME XSTACK, 12, STACK
        ARGFRAME IOVERLAY, 0, STATIC
        ARGFRAME DOVERLAY, 0, STATIC
        EXTERN osal_rand
        FUNCTION osal_rand,0202H
        ARGFRAME ISTACK, 0, STACK
        ARGFRAME PSTACK, 0, STACK
        ARGFRAME XSTACK, 12, STACK
        ARGFRAME IOVERLAY, 0, STATIC
        ARGFRAME DOVERLAY, 0, STATIC
        EXTERN aps_FindGroup
        FUNCTION aps_FindGroup,0202H
        ARGFRAME ISTACK, 0, STACK
        ARGFRAME PSTACK, 0, STACK
        ARGFRAME XSTACK, 10, STACK
        ARGFRAME IOVERLAY, 0, STATIC
        ARGFRAME DOVERLAY, 0, STATIC
        EXTERN aps_RemoveGroup
        FUNCTION aps_RemoveGroup,0202H
        ARGFRAME ISTACK, 0, STACK
        ARGFRAME PSTACK, 0, STACK
        ARGFRAME XSTACK, 10, STACK
        ARGFRAME IOVERLAY, 0, STATIC
        ARGFRAME DOVERLAY, 0, STATIC
        EXTERN HalLedSet
        FUNCTION HalLedSet,0202H
        ARGFRAME ISTACK, 2, STACK
        ARGFRAME PSTACK, 0, STACK
        ARGFRAME XSTACK, 10, STACK
        ARGFRAME IOVERLAY, 0, STATIC
        ARGFRAME DOVERLAY, 0, STATIC
        EXTERN AF_DataRequest
        FUNCTION AF_DataRequest,0202H
        ARGFRAME ISTACK, 0, STACK
        ARGFRAME PSTACK, 0, STACK
        ARGFRAME XSTACK, 29, STACK
        ARGFRAME IOVERLAY, 0, STATIC
        ARGFRAME DOVERLAY, 0, STATIC
        EXTERN RF_on
        FUNCTION RF_on,0202H
        ARGFRAME ISTACK, 0, STACK
        ARGFRAME PSTACK, 0, STACK
        ARGFRAME XSTACK, 14, STACK
        ARGFRAME IOVERLAY, 0, STATIC
        ARGFRAME DOVERLAY, 0, STATIC
        EXTERN RF_off
        FUNCTION RF_off,0202H
        ARGFRAME ISTACK, 0, STACK
        ARGFRAME PSTACK, 0, STACK
        ARGFRAME XSTACK, 14, STACK
        ARGFRAME IOVERLAY, 0, STATIC
        ARGFRAME DOVERLAY, 0, STATIC
        EXTERN ??AF_DataRequest?relay
        FUNCTION ??AF_DataRequest?relay,00H
        EXTERN ??HalLcdWriteString?relay
        FUNCTION ??HalLcdWriteString?relay,00H
        EXTERN ??HalLedSet?relay
        FUNCTION ??HalLedSet?relay,00H
        EXTERN ??RF_off?relay
        FUNCTION ??RF_off?relay,00H
        EXTERN ??RF_on?relay
        FUNCTION ??RF_on?relay,00H
        EXTERN ??RegisterForKeys?relay
        FUNCTION ??RegisterForKeys?relay,00H
        EXTERN ??afRegister?relay
        FUNCTION ??afRegister?relay,00H
        EXTERN ??aps_AddGroup?relay
        FUNCTION ??aps_AddGroup?relay,00H
        EXTERN ??aps_FindGroup?relay
        FUNCTION ??aps_FindGroup?relay,00H
        EXTERN ??aps_RemoveGroup?relay
        FUNCTION ??aps_RemoveGroup?relay,00H
        EXTERN ??osal_memcpy?relay
        FUNCTION ??osal_memcpy?relay,00H
        EXTERN ??osal_msg_deallocate?relay
        FUNCTION ??osal_msg_deallocate?relay,00H
        EXTERN ??osal_msg_receive?relay
        FUNCTION ??osal_msg_receive?relay,00H
        EXTERN ??osal_rand?relay
        FUNCTION ??osal_rand?relay,00H
        EXTERN ??osal_start_timerEx?relay
        FUNCTION ??osal_start_timerEx?relay,00H
        EXTERN count
        EXTERN m_state

// F:\key_pro\AAAAAgraduation_project\Ωªª•œµÕ≥≥Ã–Ú\ ÷ª∑\ ÷ª∑\÷ª∑¢ÀÕ ˝æ›\Projects\zstack\Samples\SampleApp\Source\SampleApp.c
//    1 /**************************************************************************************************
//    2   Filename:       SampleApp.c
//    3   Revised:        $Date: 2009-03-18 15:56:27 -0700 (Wed, 18 Mar 2009) $
//    4   Revision:       $Revision: 19453 $
//    5 
//    6   Description:    Sample Application (no Profile).
//    7 
//    8 
//    9   Copyright 2007 Texas Instruments Incorporated. All rights reserved.
//   10 
//   11   IMPORTANT: Your use of this Software is limited to those specific rights
//   12   granted under the terms of a software license agreement between the user
//   13   who downloaded the software, his/her employer (which must be your employer)
//   14   and Texas Instruments Incorporated (the "License").  You may not use this
//   15   Software unless you agree to abide by the terms of the License. The License
//   16   limits your use, and you acknowledge, that the Software may not be modified,
//   17   copied or distributed unless embedded on a Texas Instruments microcontroller
//   18   or used solely and exclusively in conjunction with a Texas Instruments radio
//   19   frequency transceiver, which is integrated into your product.  Other than for
//   20   the foregoing purpose, you may not use, reproduce, copy, prepare derivative
//   21   works of, modify, distribute, perform, display or sell this Software and/or
//   22   its documentation for any purpose.
//   23 
//   24   YOU FURTHER ACKNOWLEDGE AND AGREE THAT THE SOFTWARE AND DOCUMENTATION ARE
//   25   PROVIDED ìAS IS?WITHOUT WARRANTY OF ANY KIND, EITHER EXPRESS OR IMPLIED,
//   26   INCLUDING WITHOUT LIMITATION, ANY WARRANTY OF MERCHANTABILITY, TITLE,
//   27   NON-INFRINGEMENT AND FITNESS FOR A PARTICULAR PURPOSE. IN NO EVENT SHALL
//   28   TEXAS INSTRUMENTS OR ITS LICENSORS BE LIABLE OR OBLIGATED UNDER CONTRACT,
//   29   NEGLIGENCE, STRICT LIABILITY, CONTRIBUTION, BREACH OF WARRANTY, OR OTHER
//   30   LEGAL EQUITABLE THEORY ANY DIRECT OR INDIRECT DAMAGES OR EXPENSES
//   31   INCLUDING BUT NOT LIMITED TO ANY INCIDENTAL, SPECIAL, INDIRECT, PUNITIVE
//   32   OR CONSEQUENTIAL DAMAGES, LOST PROFITS OR LOST DATA, COST OF PROCUREMENT
//   33   OF SUBSTITUTE GOODS, TECHNOLOGY, SERVICES, OR ANY CLAIMS BY THIRD PARTIES
//   34   (INCLUDING BUT NOT LIMITED TO ANY DEFENSE THEREOF), OR OTHER SIMILAR COSTS.
//   35 
//   36   Should you have any questions regarding your right to use this Software,
//   37   contact Texas Instruments Incorporated at www.TI.com.
//   38 **************************************************************************************************/
//   39 
//   40 /*********************************************************************
//   41   This application isn't intended to do anything useful, it is
//   42   intended to be a simple example of an application's structure.
//   43 
//   44   This application sends it's messages either as broadcast or
//   45   broadcast filtered group messages.  The other (more normal)
//   46   message addressing is unicast.  Most of the other sample
//   47   applications are written to support the unicast message model.
//   48 
//   49   Key control:
//   50     SW1:  Sends a flash command to all devices in Group 1.
//   51     SW2:  Adds/Removes (toggles) this device in and out
//   52           of Group 1.  This will enable and disable the
//   53           reception of the flash command.
//   54 *********************************************************************/
//   55 
//   56 /*********************************************************************
//   57  * INCLUDES
//   58  */
//   59 #include "OSAL.h"
//   60 #include "ZGlobals.h"
//   61 #include "AF.h"
//   62 #include "aps_groups.h"
//   63 #include "ZDApp.h"
//   64 
//   65 #include "SampleApp.h"
//   66 #include "SampleAppHw.h"
//   67 
//   68 #include "OnBoard.h"

        ASEGN SFR_AN:DATA:NOROOT,0a0H
// union <unnamed> volatile __sfr _A_P2
_A_P2:
        DATA8
        DS 1

        ASEGN SFR_AN:DATA:NOROOT,0c0H
// union <unnamed> volatile __sfr _A_IRCON
_A_IRCON:
        DATA8
        DS 1
//   69 
//   70 /* HAL */
//   71 #include "hal_lcd.h"
//   72 #include "hal_sleep.h"
//   73 #include "hal_led.h"
//   74 #include "hal_key.h"
//   75 
//   76 /*********************************************************************
//   77  * MACROS
//   78  */
//   79 
//   80 /*********************************************************************
//   81  * CONSTANTS
//   82  */
//   83 
//   84 /*********************************************************************
//   85  * TYPEDEFS
//   86  */
//   87 #define Sensor P0_0
//   88 
//   89 /*********************************************************************
//   90  * GLOBAL VARIABLES
//   91  */

        RSEG XDATA_Z:XDATA:NOROOT(0)
        DATA8
//   92 uint8 led_flag=0;
led_flag:
        DS 1
        REQUIRE __INIT_XDATA_Z
//   93 

        RSEG XDATA_Z:XDATA:NOROOT(0)
        DATA8
//   94 uint8 count_open=0;
count_open:
        DS 1
        REQUIRE __INIT_XDATA_Z

        RSEG XDATA_Z:XDATA:NOROOT(0)
        DATA8
//   95 uint8 count_close=0;
count_close:
        DS 1
        REQUIRE __INIT_XDATA_Z

        RSEG XDATA_Z:XDATA:NOROOT(0)
        DATA8
//   96 uint8 LedState = 0;
LedState:
        DS 1
        REQUIRE __INIT_XDATA_Z

        RSEG XDATA_Z:XDATA:NOROOT(0)
        DATA8
//   97 uint8 end_flag = 0;
end_flag:
        DS 1
        REQUIRE __INIT_XDATA_Z

        RSEG XDATA_Z:XDATA:NOROOT(0)
        DATA16
//   98 uint16 end_count = 0;
end_count:
        DS 2
        REQUIRE __INIT_XDATA_Z
//   99 extern uint16 count;             //”√”⁄∂® ±∆˜º∆ ˝
//  100 extern uint8 timesleep_count;
//  101 extern uint8 LedState;
//  102 extern uint8 open_flag;  //ø™ª˙–≈∫≈ 
//  103 extern uint8 close_flag;  //πÿª˙–≈∫≈
//  104 extern uint8 timesleep;   //∂® ±–›√ﬂ 
//  105 extern uint8 untimesleep;//Œﬁ–›÷π–›√ﬂ
//  106 extern uint8 timesleep_test;
//  107 // This list should be filled with Application specific Cluster IDs.

        RSEG XDATA_ROM_C:CONST:REORDER:NOROOT(0)
        DATA32
//  108 const cId_t SampleApp_ClusterList[SAMPLEAPP_MAX_CLUSTERS] =
SampleApp_ClusterList:
        DATA16
        DW 1
        DW 2
//  109 {
//  110   SAMPLEAPP_PERIODIC_CLUSTERID,
//  111   SAMPLEAPP_FLASH_CLUSTERID
//  112 };
//  113 

        RSEG XDATA_ROM_C:CONST:REORDER:NOROOT(0)
        DATA8
//  114 const SimpleDescriptionFormat_t SampleApp_SimpleDesc =
SampleApp_SimpleDesc:
        DB 20
        DATA16
        DW 3848
        DW 1
        DATA8
        DB 0
        DB 2
        DATA16
        DW SampleApp_ClusterList
        DATA8
        DB 2
        DATA16
        DW SampleApp_ClusterList
//  115 {
//  116   SAMPLEAPP_ENDPOINT,              //  int Endpoint;
//  117   SAMPLEAPP_PROFID,                //  uint16 AppProfId[2];
//  118   SAMPLEAPP_DEVICEID,              //  uint16 AppDeviceId[2];
//  119   SAMPLEAPP_DEVICE_VERSION,        //  int   AppDevVer:4;
//  120   SAMPLEAPP_FLAGS,                 //  int   AppFlags:4;
//  121   SAMPLEAPP_MAX_CLUSTERS,          //  uint8  AppNumInClusters;
//  122   (cId_t *)SampleApp_ClusterList,  //  uint8 *pAppInClusterList;
//  123   SAMPLEAPP_MAX_CLUSTERS,          //  uint8  AppNumInClusters;
//  124   (cId_t *)SampleApp_ClusterList   //  uint8 *pAppInClusterList;
//  125 };
//  126 
//  127 // This is the Endpoint/Interface description.  It is defined here, but
//  128 // filled-in in SampleApp_Init().  Another way to go would be to fill
//  129 // in the structure here and make it a "const" (in code space).  The
//  130 // way it's defined in this sample app it is define in RAM.

        RSEG XDATA_Z:XDATA:NOROOT(0)
        DATA8
//  131 endPointDesc_t SampleApp_epDesc;
SampleApp_epDesc:
        DS 6
        REQUIRE __INIT_XDATA_Z
//  132 
//  133 /*********************************************************************
//  134  * EXTERNAL VARIABLES
//  135  */
//  136 
//  137 /*********************************************************************
//  138  * EXTERNAL FUNCTIONS
//  139  */
//  140 
//  141 /*********************************************************************
//  142  * LOCAL VARIABLES
//  143  */

        RSEG XDATA_Z:XDATA:NOROOT(0)
        DATA8
//  144 uint8 send_flag=0;//”√”⁄◊‘∂Ø∑¢ÀÕπÿ±’–≈∫≈∫Ûµƒ—” ±
send_flag:
        DS 1
        REQUIRE __INIT_XDATA_Z

        RSEG XDATA_Z:XDATA:NOROOT(0)
        DATA8
//  145 uint8 SampleApp_TaskID;   // Task ID for internal task/event processing
SampleApp_TaskID:
        DS 1
        REQUIRE __INIT_XDATA_Z
//  146                           // This variable will be received when
//  147                           // SampleApp_Init() is called.

        RSEG XDATA_Z:XDATA:NOROOT(0)
        DATA8
//  148 devStates_t SampleApp_NwkState;
SampleApp_NwkState:
        DS 1
        REQUIRE __INIT_XDATA_Z
//  149 

        RSEG XDATA_Z:XDATA:NOROOT(0)
        DATA8
//  150 uint8 SampleApp_TransID;  // This is the unique message ID (counter)
SampleApp_TransID:
        DS 1
        REQUIRE __INIT_XDATA_Z
//  151 

        RSEG XDATA_Z:XDATA:NOROOT(0)
        DATA8
//  152 afAddrType_t SampleApp_Periodic_DstAddr;
SampleApp_Periodic_DstAddr:
        DS 12
        REQUIRE __INIT_XDATA_Z

        RSEG XDATA_Z:XDATA:NOROOT(0)
        DATA8
//  153 afAddrType_t SampleApp_Flash_DstAddr;
SampleApp_Flash_DstAddr:
        DS 12
        REQUIRE __INIT_XDATA_Z
//  154 

        RSEG XDATA_Z:XDATA:NOROOT(0)
        DATA8
//  155 aps_Group_t SampleApp_Group;
SampleApp_Group:
        DS 18
        REQUIRE __INIT_XDATA_Z
//  156 
//  157 

        RSEG XDATA_Z:XDATA:NOROOT(0)
        DATA8
//  158 uint8 SampleAppPeriodicCounter = 0;
SampleAppPeriodicCounter:
        DS 1
        REQUIRE __INIT_XDATA_Z

        RSEG XDATA_Z:XDATA:NOROOT(0)
        DATA8
//  159 uint8 SampleAppFlashCounter = 0;
SampleAppFlashCounter:
        DS 1
        REQUIRE __INIT_XDATA_Z
//  160 
//  161 /*********************************************************************
//  162  * LOCAL FUNCTIONS
//  163  */
//  164 void SampleApp_HandleKeys( uint8 shift, uint8 keys );
//  165 void SampleApp_MessageMSGCB( afIncomingMSGPacket_t *pckt );
//  166 void SampleApp_SendPeriodicMessage( void );
//  167 void SampleApp_SendFlashMessage( uint16 flashTime );
//  168 
//  169 /*********************************************************************
//  170  * NETWORK LAYER CALLBACKS
//  171  */
//  172 
//  173 /*********************************************************************
//  174  * PUBLIC FUNCTIONS
//  175  */
//  176 
//  177 /*********************************************************************
//  178  * @fn      SampleApp_Init
//  179  *
//  180  * @brief   Initialization function for the Generic App Task.
//  181  *          This is called during initialization and should contain
//  182  *          any application specific initialization (ie. hardware
//  183  *          initialization/setup, table initialization, power up
//  184  *          notificaiton ... ).
//  185  *
//  186  * @param   task_id - the ID assigned by OSAL.  This ID should be
//  187  *                    used to send messages and set timers.
//  188  *
//  189  * @return  none
//  190  */

        RSEG BANKED_CODE:CODE:NOROOT(0)
//  191 void SampleApp_Init( uint8 task_id )
SampleApp_Init:
        CFI Block cfiBlock0 Using cfiCommon0
        CFI Function SampleApp_Init
        CODE
//  192 {
        FUNCALL SampleApp_Init, afRegister
        LOCFRAME ISTACK, 0, STACK
        LOCFRAME PSTACK, 0, STACK
        LOCFRAME XSTACK, 11, STACK
        LOCFRAME IOVERLAY, 0, STATIC
        LOCFRAME DOVERLAY, 0, STATIC
        ARGFRAME ISTACK, 0, STACK
        ARGFRAME PSTACK, 0, STACK
        ARGFRAME XSTACK, 11, STACK
        ARGFRAME IOVERLAY, 0, STATIC
        ARGFRAME DOVERLAY, 0, STATIC
        FUNCALL SampleApp_Init, RegisterForKeys
        LOCFRAME ISTACK, 0, STACK
        LOCFRAME PSTACK, 0, STACK
        LOCFRAME XSTACK, 11, STACK
        LOCFRAME IOVERLAY, 0, STATIC
        LOCFRAME DOVERLAY, 0, STATIC
        ARGFRAME ISTACK, 0, STACK
        ARGFRAME PSTACK, 0, STACK
        ARGFRAME XSTACK, 11, STACK
        ARGFRAME IOVERLAY, 0, STATIC
        ARGFRAME DOVERLAY, 0, STATIC
        FUNCALL SampleApp_Init, osal_memcpy
        LOCFRAME ISTACK, 0, STACK
        LOCFRAME PSTACK, 0, STACK
        LOCFRAME XSTACK, 14, STACK
        LOCFRAME IOVERLAY, 0, STATIC
        LOCFRAME DOVERLAY, 0, STATIC
        ARGFRAME ISTACK, 0, STACK
        ARGFRAME PSTACK, 0, STACK
        ARGFRAME XSTACK, 14, STACK
        ARGFRAME IOVERLAY, 0, STATIC
        ARGFRAME DOVERLAY, 0, STATIC
        FUNCALL SampleApp_Init, aps_AddGroup
        LOCFRAME ISTACK, 0, STACK
        LOCFRAME PSTACK, 0, STACK
        LOCFRAME XSTACK, 11, STACK
        LOCFRAME IOVERLAY, 0, STATIC
        LOCFRAME DOVERLAY, 0, STATIC
        ARGFRAME ISTACK, 0, STACK
        ARGFRAME PSTACK, 0, STACK
        ARGFRAME XSTACK, 11, STACK
        ARGFRAME IOVERLAY, 0, STATIC
        ARGFRAME DOVERLAY, 0, STATIC
        FUNCALL SampleApp_Init, HalLcdWriteString
        LOCFRAME ISTACK, 0, STACK
        LOCFRAME PSTACK, 0, STACK
        LOCFRAME XSTACK, 11, STACK
        LOCFRAME IOVERLAY, 0, STATIC
        LOCFRAME DOVERLAY, 0, STATIC
        ARGFRAME ISTACK, 0, STACK
        ARGFRAME PSTACK, 0, STACK
        ARGFRAME XSTACK, 11, STACK
        ARGFRAME IOVERLAY, 0, STATIC
        ARGFRAME DOVERLAY, 0, STATIC
        MOV     A,#-0xb
        LCALL   ?BANKED_ENTER_XDATA
        CFI DPH0 load(1, XDATA, add(CFA_XSP16, literal(-1)))
        CFI DPL0 load(1, XDATA, add(CFA_XSP16, literal(-2)))
        CFI ?BRET_EXT load(1, XDATA, add(CFA_XSP16, literal(-3)))
        CFI ?RET_HIGH load(1, XDATA, add(CFA_XSP16, literal(-4)))
        CFI ?RET_LOW load(1, XDATA, add(CFA_XSP16, literal(-5)))
        CFI R7 load(1, XDATA, add(CFA_XSP16, literal(-6)))
        CFI V2 load(1, XDATA, add(CFA_XSP16, literal(-7)))
        CFI V1 load(1, XDATA, add(CFA_XSP16, literal(-8)))
        CFI V0 load(1, XDATA, add(CFA_XSP16, literal(-9)))
        CFI VB load(1, XDATA, add(CFA_XSP16, literal(-10)))
        CFI R6 load(1, XDATA, add(CFA_XSP16, literal(-11)))
        CFI CFA_SP SP+0
        CFI CFA_XSP16 add(XSP16, 11)
        ; Saved register size: 11
        ; Auto size: 0
        MOV     A,R1
//  193   SampleApp_TaskID = task_id;
        MOV     DPTR,#SampleApp_TaskID
        MOVX    @DPTR,A
//  194   SampleApp_NwkState = DEV_INIT;
        MOV     DPTR,#SampleApp_NwkState
        MOV     A,#0x1
        MOVX    @DPTR,A
//  195   SampleApp_TransID = 0;
        MOV     DPTR,#SampleApp_TransID
        CLR     A
        MOVX    @DPTR,A
//  196 
//  197   // Device hardware initialization can be added here or in main() (Zmain.c).
//  198   // If the hardware is application specific - add it here.
//  199   // If the hardware is other parts of the device add it in main().
//  200 
//  201  #if defined ( BUILD_ALL_DEVICES )
//  202   // The "Demo" target is setup to have BUILD_ALL_DEVICES and HOLD_AUTO_START
//  203   // We are looking at a jumper (defined in SampleAppHw.c) to be jumpered
//  204   // together - if they are - we will start up a coordinator. Otherwise,
//  205   // the device will start as a router.
//  206   if ( readCoordinatorJumper() )
//  207     zgDeviceLogicalType = ZG_DEVICETYPE_COORDINATOR;
//  208   else
//  209     zgDeviceLogicalType = ZG_DEVICETYPE_ROUTER;
//  210 #endif // BUILD_ALL_DEVICES
//  211 
//  212 #if defined ( HOLD_AUTO_START )
//  213   // HOLD_AUTO_START is a compile option that will surpress ZDApp
//  214   //  from starting the device and wait for the application to
//  215   //  start the device.
//  216   ZDOInitDevice(0);
//  217 #endif
//  218 
//  219   // Setup for the periodic message's destination address
//  220   // Broadcast to everyone
//  221   SampleApp_Periodic_DstAddr.addrMode = (afAddrMode_t)AddrBroadcast;
        MOV     DPTR,#SampleApp_Periodic_DstAddr + 8
        MOV     A,#0xf
        MOVX    @DPTR,A
//  222   SampleApp_Periodic_DstAddr.endPoint = SAMPLEAPP_ENDPOINT;
        INC     DPTR
        MOV     A,#0x14
        MOVX    @DPTR,A
//  223   SampleApp_Periodic_DstAddr.addr.shortAddr = 0xFFFF;
        MOV     DPTR,#SampleApp_Periodic_DstAddr
        MOV     A,#-0x1
        MOVX    @DPTR,A
        INC     DPTR
        MOVX    @DPTR,A
//  224 
//  225   // Setup for the flash command's destination address - Group 1
//  226   SampleApp_Flash_DstAddr.addrMode = (afAddrMode_t)afAddrGroup;
        MOV     DPTR,#SampleApp_Flash_DstAddr + 8
        MOV     A,#0x1
        MOVX    @DPTR,A
//  227   SampleApp_Flash_DstAddr.endPoint = SAMPLEAPP_ENDPOINT;
        INC     DPTR
        MOV     A,#0x14
        MOVX    @DPTR,A
//  228   SampleApp_Flash_DstAddr.addr.shortAddr = SAMPLEAPP_FLASH_GROUP; //◊È∫≈1
        MOV     DPTR,#SampleApp_Flash_DstAddr
        MOV     A,#0x1
        MOVX    @DPTR,A
        INC     DPTR
        CLR     A
        MOVX    @DPTR,A
//  229   //SampleApp_Flash_DstAddr.addr.shortAddr = 0x0002;                //◊È∫≈2
//  230   
//  231   // Fill out the endpoint description.
//  232   SampleApp_epDesc.endPoint = SAMPLEAPP_ENDPOINT;
        MOV     DPTR,#SampleApp_epDesc
        MOV     A,#0x14
        MOVX    @DPTR,A
//  233   SampleApp_epDesc.task_id = &SampleApp_TaskID;
        INC     DPTR
        MOV     A,#SampleApp_TaskID & 0xff
        MOVX    @DPTR,A
        INC     DPTR
        MOV     A,#(SampleApp_TaskID >> 8) & 0xff
        MOVX    @DPTR,A
//  234   SampleApp_epDesc.simpleDesc
//  235             = (SimpleDescriptionFormat_t *)&SampleApp_SimpleDesc;
        INC     DPTR
        MOV     A,#SampleApp_SimpleDesc & 0xff
        MOVX    @DPTR,A
        INC     DPTR
        MOV     A,#(SampleApp_SimpleDesc >> 8) & 0xff
        MOVX    @DPTR,A
//  236   SampleApp_epDesc.latencyReq = noLatencyReqs;
        INC     DPTR
        CLR     A
        MOVX    @DPTR,A
//  237 
//  238   // Register the endpoint description with the AF
//  239   afRegister( &SampleApp_epDesc );
        ; Setup parameters for call to function afRegister
        MOV     R2,#SampleApp_epDesc & 0xff
        MOV     R3,#(SampleApp_epDesc >> 8) & 0xff
        LCALL   ??afRegister?relay
//  240 
//  241   // Register for all key events - This app will handle all key events
//  242   RegisterForKeys( SampleApp_TaskID );
        ; Setup parameters for call to function RegisterForKeys
        MOV     DPTR,#SampleApp_TaskID
        MOVX    A,@DPTR
        MOV     R1,A
        LCALL   ??RegisterForKeys?relay
//  243 
//  244   // By default, all devices start out in Group 1
//  245   SampleApp_Group.ID = 0x0001;
        MOV     DPTR,#SampleApp_Group
        MOV     A,#0x1
        MOVX    @DPTR,A
        INC     DPTR
        CLR     A
        MOVX    @DPTR,A
//  246   osal_memcpy( SampleApp_Group.name, "Group 1", 7 );
        ; Setup parameters for call to function osal_memcpy
        MOV     ?V0 + 0,#`?<Constant "Group 1">` & 0xff
        MOV     ?V0 + 1,#(`?<Constant "Group 1">` >> 8) & 0xff
        MOV     ?V0 + 2,A
        MOV     R0,#?V0 + 0
        LCALL   ?PUSH_XSTACK_I_THREE
        CFI CFA_XSP16 add(XSP16, 14)
        MOV     R4,#0x7
        MOV     R5,#0x0
        MOV     R2,#(SampleApp_Group + 2) & 0xff
        MOV     R3,#((SampleApp_Group + 2) >> 8) & 0xff
        LCALL   ??osal_memcpy?relay
        MOV     A,#0x3
        LCALL   ?DEALLOC_XSTACK8
        CFI CFA_XSP16 add(XSP16, 11)
//  247   aps_AddGroup( SAMPLEAPP_ENDPOINT, &SampleApp_Group );
        ; Setup parameters for call to function aps_AddGroup
        MOV     R2,#SampleApp_Group & 0xff
        MOV     R3,#(SampleApp_Group >> 8) & 0xff
        MOV     R1,#0x14
        LCALL   ??aps_AddGroup?relay
//  248 
//  249 #if defined ( LCD_SUPPORTED )
//  250   HalLcdWriteString( "SampleApp", HAL_LCD_LINE_1 );
        ; Setup parameters for call to function HalLcdWriteString
        MOV     R1,#0x1
        MOV     R2,#`?<Constant "SampleApp">` & 0xff
        MOV     R3,#(`?<Constant "SampleApp">` >> 8) & 0xff
        LCALL   ??HalLcdWriteString?relay
//  251 #endif
//  252 }
        MOV     R7,#0x3
        LJMP    ?BANKED_LEAVE_XDATA
        CFI EndBlock cfiBlock0
//  253 
//  254 /*********************************************************************
//  255  * @fn      SampleApp_ProcessEvent
//  256  *
//  257  * @brief   Generic Application Task event processor.  This function
//  258  *          is called to process all events for the task.  Events
//  259  *          include timers, messages and any other user defined events.
//  260  *
//  261  * @param   task_id  - The OSAL assigned task ID.
//  262  * @param   events - events to process.  This is a bit map and can
//  263  *                   contain more than one event.
//  264  *
//  265  * @return  none
//  266  */

        RSEG BANKED_CODE:CODE:NOROOT(0)
//  267 uint16 SampleApp_ProcessEvent( uint8 task_id, uint16 events )
SampleApp_ProcessEvent:
        CFI Block cfiBlock1 Using cfiCommon0
        CFI Function SampleApp_ProcessEvent
        CODE
//  268 {
        FUNCALL SampleApp_ProcessEvent, osal_msg_receive
        LOCFRAME ISTACK, 0, STACK
        LOCFRAME PSTACK, 0, STACK
        LOCFRAME XSTACK, 12, STACK
        LOCFRAME IOVERLAY, 0, STATIC
        LOCFRAME DOVERLAY, 0, STATIC
        ARGFRAME ISTACK, 0, STACK
        ARGFRAME PSTACK, 0, STACK
        ARGFRAME XSTACK, 12, STACK
        ARGFRAME IOVERLAY, 0, STATIC
        ARGFRAME DOVERLAY, 0, STATIC
        FUNCALL SampleApp_ProcessEvent, osal_start_timerEx
        LOCFRAME ISTACK, 0, STACK
        LOCFRAME PSTACK, 0, STACK
        LOCFRAME XSTACK, 12, STACK
        LOCFRAME IOVERLAY, 0, STATIC
        LOCFRAME DOVERLAY, 0, STATIC
        ARGFRAME ISTACK, 0, STACK
        ARGFRAME PSTACK, 0, STACK
        ARGFRAME XSTACK, 12, STACK
        ARGFRAME IOVERLAY, 0, STATIC
        ARGFRAME DOVERLAY, 0, STATIC
        FUNCALL SampleApp_ProcessEvent, osal_msg_deallocate
        LOCFRAME ISTACK, 0, STACK
        LOCFRAME PSTACK, 0, STACK
        LOCFRAME XSTACK, 12, STACK
        LOCFRAME IOVERLAY, 0, STATIC
        LOCFRAME DOVERLAY, 0, STATIC
        ARGFRAME ISTACK, 0, STACK
        ARGFRAME PSTACK, 0, STACK
        ARGFRAME XSTACK, 12, STACK
        ARGFRAME IOVERLAY, 0, STATIC
        ARGFRAME DOVERLAY, 0, STATIC
        FUNCALL SampleApp_ProcessEvent, osal_msg_receive
        LOCFRAME ISTACK, 0, STACK
        LOCFRAME PSTACK, 0, STACK
        LOCFRAME XSTACK, 12, STACK
        LOCFRAME IOVERLAY, 0, STATIC
        LOCFRAME DOVERLAY, 0, STATIC
        ARGFRAME ISTACK, 0, STACK
        ARGFRAME PSTACK, 0, STACK
        ARGFRAME XSTACK, 12, STACK
        ARGFRAME IOVERLAY, 0, STATIC
        ARGFRAME DOVERLAY, 0, STATIC
        FUNCALL SampleApp_ProcessEvent, SampleApp_HandleKeys
        LOCFRAME ISTACK, 0, STACK
        LOCFRAME PSTACK, 0, STACK
        LOCFRAME XSTACK, 12, STACK
        LOCFRAME IOVERLAY, 0, STATIC
        LOCFRAME DOVERLAY, 0, STATIC
        ARGFRAME ISTACK, 0, STACK
        ARGFRAME PSTACK, 0, STACK
        ARGFRAME XSTACK, 12, STACK
        ARGFRAME IOVERLAY, 0, STATIC
        ARGFRAME DOVERLAY, 0, STATIC
        FUNCALL SampleApp_ProcessEvent, SampleApp_MessageMSGCB
        LOCFRAME ISTACK, 0, STACK
        LOCFRAME PSTACK, 0, STACK
        LOCFRAME XSTACK, 12, STACK
        LOCFRAME IOVERLAY, 0, STATIC
        LOCFRAME DOVERLAY, 0, STATIC
        ARGFRAME ISTACK, 0, STACK
        ARGFRAME PSTACK, 0, STACK
        ARGFRAME XSTACK, 12, STACK
        ARGFRAME IOVERLAY, 0, STATIC
        ARGFRAME DOVERLAY, 0, STATIC
        FUNCALL SampleApp_ProcessEvent, SampleApp_SendPeriodicMessage
        LOCFRAME ISTACK, 0, STACK
        LOCFRAME PSTACK, 0, STACK
        LOCFRAME XSTACK, 12, STACK
        LOCFRAME IOVERLAY, 0, STATIC
        LOCFRAME DOVERLAY, 0, STATIC
        ARGFRAME ISTACK, 0, STACK
        ARGFRAME PSTACK, 0, STACK
        ARGFRAME XSTACK, 12, STACK
        ARGFRAME IOVERLAY, 0, STATIC
        ARGFRAME DOVERLAY, 0, STATIC
        FUNCALL SampleApp_ProcessEvent, osal_rand
        LOCFRAME ISTACK, 0, STACK
        LOCFRAME PSTACK, 0, STACK
        LOCFRAME XSTACK, 12, STACK
        LOCFRAME IOVERLAY, 0, STATIC
        LOCFRAME DOVERLAY, 0, STATIC
        ARGFRAME ISTACK, 0, STACK
        ARGFRAME PSTACK, 0, STACK
        ARGFRAME XSTACK, 12, STACK
        ARGFRAME IOVERLAY, 0, STATIC
        ARGFRAME DOVERLAY, 0, STATIC
        FUNCALL SampleApp_ProcessEvent, osal_start_timerEx
        LOCFRAME ISTACK, 0, STACK
        LOCFRAME PSTACK, 0, STACK
        LOCFRAME XSTACK, 12, STACK
        LOCFRAME IOVERLAY, 0, STATIC
        LOCFRAME DOVERLAY, 0, STATIC
        ARGFRAME ISTACK, 0, STACK
        ARGFRAME PSTACK, 0, STACK
        ARGFRAME XSTACK, 12, STACK
        ARGFRAME IOVERLAY, 0, STATIC
        ARGFRAME DOVERLAY, 0, STATIC
        MOV     A,#-0xc
        LCALL   ?BANKED_ENTER_XDATA
        CFI DPH0 load(1, XDATA, add(CFA_XSP16, literal(-1)))
        CFI DPL0 load(1, XDATA, add(CFA_XSP16, literal(-2)))
        CFI ?BRET_EXT load(1, XDATA, add(CFA_XSP16, literal(-3)))
        CFI ?RET_HIGH load(1, XDATA, add(CFA_XSP16, literal(-4)))
        CFI ?RET_LOW load(1, XDATA, add(CFA_XSP16, literal(-5)))
        CFI R7 load(1, XDATA, add(CFA_XSP16, literal(-6)))
        CFI V3 load(1, XDATA, add(CFA_XSP16, literal(-7)))
        CFI V2 load(1, XDATA, add(CFA_XSP16, literal(-8)))
        CFI V1 load(1, XDATA, add(CFA_XSP16, literal(-9)))
        CFI V0 load(1, XDATA, add(CFA_XSP16, literal(-10)))
        CFI VB load(1, XDATA, add(CFA_XSP16, literal(-11)))
        CFI R6 load(1, XDATA, add(CFA_XSP16, literal(-12)))
        CFI CFA_SP SP+0
        CFI CFA_XSP16 add(XSP16, 12)
        ; Saved register size: 12
        ; Auto size: 0
        MOV     A,R2
        MOV     R6,A
        MOV     A,R3
        MOV     R7,A
//  269   afIncomingMSGPacket_t *MSGpkt;
//  270   (void)task_id;  // Intentionally unreferenced parameter
//  271 
//  272   if ( events & SYS_EVENT_MSG )
        ANL     A,#0x80
        JZ      ??SampleApp_ProcessEvent_0
//  273   {
//  274     MSGpkt = (afIncomingMSGPacket_t *)osal_msg_receive( SampleApp_TaskID );
        ; Setup parameters for call to function osal_msg_receive
        SJMP    ??SampleApp_ProcessEvent_1
//  275     while ( MSGpkt )
//  276     {
//  277       switch ( MSGpkt->hdr.event )
//  278       {
//  279         // Received when a key is pressed
//  280         case KEY_CHANGE:
//  281           SampleApp_HandleKeys( ((keyChange_t *)MSGpkt)->state, ((keyChange_t *)MSGpkt)->keys );
//  282           break;
//  283 
//  284         // Received when a messages is received (OTA) for this endpoint
//  285         case AF_INCOMING_MSG_CMD:
//  286           SampleApp_MessageMSGCB( MSGpkt );
//  287           break;
//  288 
//  289         // Received whenever the device changes state in the network
//  290         case ZDO_STATE_CHANGE:
//  291           SampleApp_NwkState = (devStates_t)(MSGpkt->hdr.status);
??SampleApp_ProcessEvent_2:
        INC     DPTR
        MOVX    A,@DPTR
        MOV     DPTR,#SampleApp_NwkState
        MOVX    @DPTR,A
//  292           if ( (SampleApp_NwkState == DEV_ZB_COORD) ||
//  293                  (SampleApp_NwkState == DEV_ROUTER)
//  294               || (SampleApp_NwkState == DEV_END_DEVICE) )
        XRL     A,#0x9
        JZ      ??SampleApp_ProcessEvent_3
        MOVX    A,@DPTR
        XRL     A,#0x7
        JZ      ??SampleApp_ProcessEvent_3
        MOVX    A,@DPTR
        XRL     A,#0x6
        JNZ     ??SampleApp_ProcessEvent_4
//  295           {
//  296             // Start sending the periodic message in a regular interval.
//  297             osal_start_timerEx( SampleApp_TaskID,
//  298                               SAMPLEAPP_SEND_PERIODIC_MSG_EVT,
//  299                              SAMPLEAPP_SEND_PERIODIC_MSG_TIMEOUT );
??SampleApp_ProcessEvent_3:
        ; Setup parameters for call to function osal_start_timerEx
        MOV     R4,#-0x18
        MOV     R5,#0x3
        MOV     R2,#0x1
        MOV     R3,#0x0
        MOV     DPTR,#SampleApp_TaskID
        MOVX    A,@DPTR
        MOV     R1,A
        LCALL   ??osal_start_timerEx?relay
//  300           }
//  301           else
//  302           {
//  303             // Device is no longer in the network
//  304           }
//  305           break;
//  306 
//  307         default:
//  308           break;
//  309       }
//  310 
//  311       // Release the memory
//  312       osal_msg_deallocate( (uint8 *)MSGpkt );
??SampleApp_ProcessEvent_4:
        ; Setup parameters for call to function osal_msg_deallocate
        MOV     R2,?V0 + 0
        MOV     R3,?V0 + 1
        LCALL   ??osal_msg_deallocate?relay
//  313 
//  314       // Next - if one is available
//  315       MSGpkt = (afIncomingMSGPacket_t *)osal_msg_receive( SampleApp_TaskID );
        ; Setup parameters for call to function osal_msg_receive
??SampleApp_ProcessEvent_1:
        MOV     DPTR,#SampleApp_TaskID
        MOVX    A,@DPTR
        MOV     R1,A
        LCALL   ??osal_msg_receive?relay
        MOV     ?V0 + 0,R2
        MOV     ?V0 + 1,R3
        MOV     A,?V0 + 0
        ORL     A,?V0 + 1
        JZ      ??SampleApp_ProcessEvent_5
        MOV     DPL,?V0 + 0
        MOV     DPH,?V0 + 1
        MOVX    A,@DPTR
        ADD     A,#-0x1a
        JZ      ??SampleApp_ProcessEvent_6
        ADD     A,#0x5a
        JZ      ??SampleApp_ProcessEvent_7
        ADD     A,#-0x11
        JZ      ??SampleApp_ProcessEvent_2
        SJMP    ??SampleApp_ProcessEvent_4
??SampleApp_ProcessEvent_7:
        ; Setup parameters for call to function SampleApp_HandleKeys
        INC     DPTR
        INC     DPTR
        INC     DPTR
        MOVX    A,@DPTR
        MOV     R2,A
        MOV     DPL,?V0 + 0
        MOV     DPH,?V0 + 1
        INC     DPTR
        INC     DPTR
        MOVX    A,@DPTR
        MOV     R1,A
        LCALL   ??SampleApp_HandleKeys?relay
        SJMP    ??SampleApp_ProcessEvent_4
??SampleApp_ProcessEvent_6:
        ; Setup parameters for call to function SampleApp_MessageMSGCB
        MOV     R2,?V0 + 0
        MOV     R3,?V0 + 1
        LCALL   ??SampleApp_MessageMSGCB?relay
        SJMP    ??SampleApp_ProcessEvent_4
//  316     }
//  317 
//  318     // return unprocessed events
//  319     return (events ^ SYS_EVENT_MSG);
??SampleApp_ProcessEvent_5:
        MOV     A,R6
        MOV     R2,A
        MOV     A,R7
        XRL     A,#0x80
??SampleApp_ProcessEvent_8:
        MOV     R3,A
        SJMP    ??SampleApp_ProcessEvent_9
//  320   }
//  321 
//  322   // Send a message out - This event is generated by a timer
//  323   //  (setup in SampleApp_Init()).
//  324   if ( events & SAMPLEAPP_SEND_PERIODIC_MSG_EVT )
??SampleApp_ProcessEvent_0:
        MOV     A,R6
        MOV     C,0xE0 /* A   */.0
        JNC     ??SampleApp_ProcessEvent_10
//  325   {
//  326     // Send the periodic message
//  327     SampleApp_SendPeriodicMessage();
        ; Setup parameters for call to function SampleApp_SendPeriodicMessage
        LCALL   ??SampleApp_SendPeriodicMessage?relay
//  328 
//  329     // Setup to send message again in normal period (+ a little jitter)
//  330     osal_start_timerEx( SampleApp_TaskID, SAMPLEAPP_SEND_PERIODIC_MSG_EVT,
//  331         (SAMPLEAPP_SEND_PERIODIC_MSG_TIMEOUT + (osal_rand() & 0x00FF)) );
        ; Setup parameters for call to function osal_rand
        LCALL   ??osal_rand?relay
        ; Setup parameters for call to function osal_start_timerEx
        MOV     A,R2
        ADD     A,#-0x18
        MOV     R4,A
        CLR     A
        ADDC    A,#0x3
        MOV     R5,A
        MOV     R2,#0x1
        MOV     R3,#0x0
        MOV     DPTR,#SampleApp_TaskID
        MOVX    A,@DPTR
        MOV     R1,A
        LCALL   ??osal_start_timerEx?relay
//  332 
//  333     // return unprocessed events
//  334     return (events ^ SAMPLEAPP_SEND_PERIODIC_MSG_EVT);
        MOV     A,R6
        XRL     A,#0x1
        MOV     R2,A
        MOV     A,R7
        SJMP    ??SampleApp_ProcessEvent_8
//  335   }
//  336 
//  337   // Discard unknown events
//  338   return 0;
??SampleApp_ProcessEvent_10:
        MOV     R2,#0x0
        MOV     R3,#0x0
??SampleApp_ProcessEvent_9:
        MOV     R7,#0x4
        LJMP    ?BANKED_LEAVE_XDATA
        CFI EndBlock cfiBlock1
//  339 }
//  340 
//  341 /*********************************************************************
//  342  * Event Generation Functions
//  343  */
//  344 /*********************************************************************
//  345  * @fn      SampleApp_HandleKeys
//  346  *
//  347  * @brief   Handles all key events for this device.
//  348  *
//  349  * @param   shift - true if in shift/alt.
//  350  * @param   keys - bit field for key events. Valid entries:
//  351  *                 HAL_KEY_SW_2
//  352  *                 HAL_KEY_SW_1
//  353  *
//  354  * @return  none
//  355  */

        RSEG BANKED_CODE:CODE:NOROOT(0)
//  356 void SampleApp_HandleKeys( uint8 shift, uint8 keys )
SampleApp_HandleKeys:
        CFI Block cfiBlock2 Using cfiCommon0
        CFI Function SampleApp_HandleKeys
        CODE
//  357 {
        FUNCALL SampleApp_HandleKeys, SampleApp_SendFlashMessage
        LOCFRAME ISTACK, 0, STACK
        LOCFRAME PSTACK, 0, STACK
        LOCFRAME XSTACK, 10, STACK
        LOCFRAME IOVERLAY, 0, STATIC
        LOCFRAME DOVERLAY, 0, STATIC
        ARGFRAME ISTACK, 0, STACK
        ARGFRAME PSTACK, 0, STACK
        ARGFRAME XSTACK, 10, STACK
        ARGFRAME IOVERLAY, 0, STATIC
        ARGFRAME DOVERLAY, 0, STATIC
        FUNCALL SampleApp_HandleKeys, aps_FindGroup
        LOCFRAME ISTACK, 0, STACK
        LOCFRAME PSTACK, 0, STACK
        LOCFRAME XSTACK, 10, STACK
        LOCFRAME IOVERLAY, 0, STATIC
        LOCFRAME DOVERLAY, 0, STATIC
        ARGFRAME ISTACK, 0, STACK
        ARGFRAME PSTACK, 0, STACK
        ARGFRAME XSTACK, 10, STACK
        ARGFRAME IOVERLAY, 0, STATIC
        ARGFRAME DOVERLAY, 0, STATIC
        FUNCALL SampleApp_HandleKeys, aps_RemoveGroup
        LOCFRAME ISTACK, 0, STACK
        LOCFRAME PSTACK, 0, STACK
        LOCFRAME XSTACK, 10, STACK
        LOCFRAME IOVERLAY, 0, STATIC
        LOCFRAME DOVERLAY, 0, STATIC
        ARGFRAME ISTACK, 0, STACK
        ARGFRAME PSTACK, 0, STACK
        ARGFRAME XSTACK, 10, STACK
        ARGFRAME IOVERLAY, 0, STATIC
        ARGFRAME DOVERLAY, 0, STATIC
        FUNCALL SampleApp_HandleKeys, aps_AddGroup
        LOCFRAME ISTACK, 0, STACK
        LOCFRAME PSTACK, 0, STACK
        LOCFRAME XSTACK, 10, STACK
        LOCFRAME IOVERLAY, 0, STATIC
        LOCFRAME DOVERLAY, 0, STATIC
        ARGFRAME ISTACK, 0, STACK
        ARGFRAME PSTACK, 0, STACK
        ARGFRAME XSTACK, 10, STACK
        ARGFRAME IOVERLAY, 0, STATIC
        ARGFRAME DOVERLAY, 0, STATIC
        MOV     A,#-0xa
        LCALL   ?BANKED_ENTER_XDATA
        CFI DPH0 load(1, XDATA, add(CFA_XSP16, literal(-1)))
        CFI DPL0 load(1, XDATA, add(CFA_XSP16, literal(-2)))
        CFI ?BRET_EXT load(1, XDATA, add(CFA_XSP16, literal(-3)))
        CFI ?RET_HIGH load(1, XDATA, add(CFA_XSP16, literal(-4)))
        CFI ?RET_LOW load(1, XDATA, add(CFA_XSP16, literal(-5)))
        CFI R7 load(1, XDATA, add(CFA_XSP16, literal(-6)))
        CFI V1 load(1, XDATA, add(CFA_XSP16, literal(-7)))
        CFI V0 load(1, XDATA, add(CFA_XSP16, literal(-8)))
        CFI VB load(1, XDATA, add(CFA_XSP16, literal(-9)))
        CFI R6 load(1, XDATA, add(CFA_XSP16, literal(-10)))
        CFI CFA_SP SP+0
        CFI CFA_XSP16 add(XSP16, 10)
        ; Saved register size: 10
        ; Auto size: 0
        MOV     A,R2
        MOV     R6,A
//  358   (void)shift;  // Intentionally unreferenced parameter
//  359   
//  360   if ( keys & HAL_KEY_SW_6 )
        MOV     C,0xE0 /* A   */.5
        JNC     ??SampleApp_HandleKeys_0
//  361   {
//  362     #if defined(ZDO_COORDINATOR)      //–≠µ˜∆˜÷ªΩ” ’ ˝æ›
//  363     
//  364     #else                             //¬∑”…∆˜∫Õ÷’∂À≤≈∑¢ÀÕ ˝æ›
//  365       SampleApp_SendFlashMessage(0);  //“‘◊È≤•∑Ω Ω∑¢ ˝æ›
        ; Setup parameters for call to function SampleApp_SendFlashMessage
        MOV     R2,#0x0
        MOV     R3,#0x0
        LCALL   ??SampleApp_SendFlashMessage?relay
//  366     #endif
//  367   }
//  368 
//  369   if ( keys & HAL_KEY_SW_1 )
??SampleApp_HandleKeys_0:
        MOV     A,R6
        MOV     C,0xE0 /* A   */.0
        JNC     ??SampleApp_HandleKeys_1
//  370   {
//  371     /* The Flashr Command is sent to Group 1.
//  372      * This key toggles this device in and out of group 1.
//  373      * If this device doesn't belong to group 1, this application
//  374      * will not receive the Flash command sent to group 1.
//  375      */
//  376     aps_Group_t *grp;
//  377     grp = aps_FindGroup( SAMPLEAPP_ENDPOINT, SAMPLEAPP_FLASH_GROUP );
//  378     if ( grp )
        ; Setup parameters for call to function aps_FindGroup
        MOV     R2,#0x1
        MOV     R3,#0x0
        MOV     R1,#0x14
        LCALL   ??aps_FindGroup?relay
        MOV     ?V0 + 1,R3
        MOV     A,R2
        ORL     A,?V0 + 1
        JZ      ??SampleApp_HandleKeys_2
//  379     {
//  380       // Remove from the group
//  381       aps_RemoveGroup( SAMPLEAPP_ENDPOINT, SAMPLEAPP_FLASH_GROUP );
        ; Setup parameters for call to function aps_RemoveGroup
        MOV     R2,#0x1
        MOV     R3,#0x0
        MOV     R1,#0x14
        LCALL   ??aps_RemoveGroup?relay
        SJMP    ??SampleApp_HandleKeys_1
//  382     }
//  383     else
//  384     {
//  385       // Add to the flash group
//  386       aps_AddGroup( SAMPLEAPP_ENDPOINT, &SampleApp_Group );
??SampleApp_HandleKeys_2:
        ; Setup parameters for call to function aps_AddGroup
        MOV     R2,#SampleApp_Group & 0xff
        MOV     R3,#(SampleApp_Group >> 8) & 0xff
        MOV     R1,#0x14
        LCALL   ??aps_AddGroup?relay
        CFI EndBlock cfiBlock2
//  387     }
//  388   }
//  389 }
??SampleApp_HandleKeys_1:
        REQUIRE ?Subroutine0
        ; // Fall through to label ?Subroutine0

        RSEG BANKED_CODE:CODE:NOROOT(0)
?Subroutine0:
        CFI Block cfiBlock3 Using cfiCommon0
        CFI NoFunction
        CFI CFA_SP SP+0
        CFI CFA_XSP16 add(XSP16, 10)
        CFI VB load(1, XDATA, add(CFA_XSP16, literal(-9)))
        CFI DPL0 load(1, XDATA, add(CFA_XSP16, literal(-2)))
        CFI DPH0 load(1, XDATA, add(CFA_XSP16, literal(-1)))
        CFI R6 load(1, XDATA, add(CFA_XSP16, literal(-10)))
        CFI R7 load(1, XDATA, add(CFA_XSP16, literal(-6)))
        CFI V0 load(1, XDATA, add(CFA_XSP16, literal(-8)))
        CFI V1 load(1, XDATA, add(CFA_XSP16, literal(-7)))
        CFI ?BRET_EXT load(1, XDATA, add(CFA_XSP16, literal(-3)))
        CFI ?RET_HIGH load(1, XDATA, add(CFA_XSP16, literal(-4)))
        CFI ?RET_LOW load(1, XDATA, add(CFA_XSP16, literal(-5)))
        MOV     R7,#0x2
        LJMP    ?BANKED_LEAVE_XDATA
        CFI EndBlock cfiBlock3
//  390 
//  391 /*********************************************************************
//  392  * LOCAL FUNCTIONS
//  393  */
//  394 
//  395 /*********************************************************************
//  396  * @fn      SampleApp_MessageMSGCB
//  397  *
//  398  * @brief   Data message processor callback.  This function processes
//  399  *          any incoming data - probably from other devices.  So, based
//  400  *          on cluster ID, perform the intended action.
//  401  *
//  402  * @param   none
//  403  *
//  404  * @return  none
//  405  */

        RSEG BANKED_CODE:CODE:NOROOT(0)
//  406 void SampleApp_MessageMSGCB( afIncomingMSGPacket_t *pkt )
SampleApp_MessageMSGCB:
        CFI Block cfiBlock4 Using cfiCommon0
        CFI Function SampleApp_MessageMSGCB
        CODE
//  407 {
        FUNCALL SampleApp_MessageMSGCB, HalLedSet
        LOCFRAME ISTACK, 2, STACK
        LOCFRAME PSTACK, 0, STACK
        LOCFRAME XSTACK, 0, STACK
        LOCFRAME IOVERLAY, 0, STATIC
        LOCFRAME DOVERLAY, 0, STATIC
        ARGFRAME ISTACK, 2, STACK
        ARGFRAME PSTACK, 0, STACK
        ARGFRAME XSTACK, 0, STACK
        ARGFRAME IOVERLAY, 0, STATIC
        ARGFRAME DOVERLAY, 0, STATIC
        FUNCALL SampleApp_MessageMSGCB, HalLedSet
        LOCFRAME ISTACK, 2, STACK
        LOCFRAME PSTACK, 0, STACK
        LOCFRAME XSTACK, 0, STACK
        LOCFRAME IOVERLAY, 0, STATIC
        LOCFRAME DOVERLAY, 0, STATIC
        ARGFRAME ISTACK, 2, STACK
        ARGFRAME PSTACK, 0, STACK
        ARGFRAME XSTACK, 0, STACK
        ARGFRAME IOVERLAY, 0, STATIC
        ARGFRAME DOVERLAY, 0, STATIC
        PUSH    DPL
        CFI DPL0 Frame(CFA_SP, 4)
        CFI CFA_SP SP+-4
        PUSH    DPH
        CFI DPH0 Frame(CFA_SP, 5)
        CFI CFA_SP SP+-5
        ; Saved register size: 2
        ; Auto size: 0
//  408   uint8 data;
//  409 
//  410   switch ( pkt->clusterId )
        MOV     DPL,R2
        MOV     DPH,R3
        INC     DPTR
        INC     DPTR
        INC     DPTR
        INC     DPTR
        MOVX    A,@DPTR
        XRL     A,#0x2
        JNZ     ??SampleApp_MessageMSGCB_0
        INC     DPTR
        MOVX    A,@DPTR
??SampleApp_MessageMSGCB_0:
        JNZ     ??SampleApp_MessageMSGCB_1
//  411   {    
//  412     case SAMPLEAPP_PERIODIC_CLUSTERID:
//  413         break;
//  414 
//  415     case SAMPLEAPP_FLASH_CLUSTERID:
//  416         data = (uint8)pkt->cmd.Data[0];
//  417         if(data == 0) 
        MOV     A,R2
        ADD     A,#0x21
        MOV     DPL,A
        MOV     A,R3
        ADDC    A,#0x0
        MOV     DPH,A
        MOVX    A,@DPTR
        MOV     R0,A
        INC     DPTR
        MOVX    A,@DPTR
        MOV     DPH,A
        MOV     DPL,R0
        MOVX    A,@DPTR
        JNZ     ??SampleApp_MessageMSGCB_2
//  418         HalLedSet(HAL_LED_2, HAL_LED_MODE_OFF);  
        ; Setup parameters for call to function HalLedSet
        MOV     R2,#0x0
        SJMP    ??SampleApp_MessageMSGCB_3
//  419         else
//  420         HalLedSet(HAL_LED_2, HAL_LED_MODE_ON); 
??SampleApp_MessageMSGCB_2:
        ; Setup parameters for call to function HalLedSet
        MOV     R2,#0x1
??SampleApp_MessageMSGCB_3:
        MOV     R1,#0x2
        LCALL   ??HalLedSet?relay
//  421         break;
//  422   }
//  423 }
??SampleApp_MessageMSGCB_1:
        POP     DPH
        CFI DPH0 SameValue
        CFI CFA_SP SP+-4
        POP     DPL
        CFI DPL0 SameValue
        CFI CFA_SP SP+-3
        LJMP    ?BRET
        CFI EndBlock cfiBlock4
//  424 
//  425 /*********************************************************************
//  426  * @fn      SampleApp_SendPeriodicMessage
//  427  *
//  428  * @brief   Send the periodic message.
//  429  *
//  430  * @param   none
//  431  *
//  432  * @return  none
//  433  */
//  434 extern void ADXL345_WR_Reg(unsigned char addr, unsigned char val);//º”ÀŸ∂»¥´∏–∆˜–¥∫Ø ˝
//  435 extern unsigned char ADXL345_RD_Reg(unsigned char addr);//º”ÀŸ∂»¥´∏–∆˜∂¡∫Ø ˝

        RSEG BANKED_CODE:CODE:NOROOT(0)
//  436 void SampleApp_SendPeriodicMessage( void )
SampleApp_SendPeriodicMessage:
        CFI Block cfiBlock5 Using cfiCommon0
        CFI Function SampleApp_SendPeriodicMessage
        CODE
//  437 {
        FUNCALL SampleApp_SendPeriodicMessage, AF_DataRequest
        LOCFRAME ISTACK, 0, STACK
        LOCFRAME PSTACK, 0, STACK
        LOCFRAME XSTACK, 29, STACK
        LOCFRAME IOVERLAY, 0, STATIC
        LOCFRAME DOVERLAY, 0, STATIC
        ARGFRAME ISTACK, 0, STACK
        ARGFRAME PSTACK, 0, STACK
        ARGFRAME XSTACK, 29, STACK
        ARGFRAME IOVERLAY, 0, STATIC
        ARGFRAME DOVERLAY, 0, STATIC
        MOV     A,#-0xa
        LCALL   ?BANKED_ENTER_XDATA
        CFI DPH0 load(1, XDATA, add(CFA_XSP16, literal(-1)))
        CFI DPL0 load(1, XDATA, add(CFA_XSP16, literal(-2)))
        CFI ?BRET_EXT load(1, XDATA, add(CFA_XSP16, literal(-3)))
        CFI ?RET_HIGH load(1, XDATA, add(CFA_XSP16, literal(-4)))
        CFI ?RET_LOW load(1, XDATA, add(CFA_XSP16, literal(-5)))
        CFI R7 load(1, XDATA, add(CFA_XSP16, literal(-6)))
        CFI V1 load(1, XDATA, add(CFA_XSP16, literal(-7)))
        CFI V0 load(1, XDATA, add(CFA_XSP16, literal(-8)))
        CFI VB load(1, XDATA, add(CFA_XSP16, literal(-9)))
        CFI R6 load(1, XDATA, add(CFA_XSP16, literal(-10)))
        CFI CFA_SP SP+0
        CFI CFA_XSP16 add(XSP16, 10)
        ; Saved register size: 10
        ; Auto size: 10
        MOV     A,#-0xa
        LCALL   ?ALLOC_XSTACK8
        CFI CFA_XSP16 add(XSP16, 20)
//  438 
//  439  ////////////////////////////////// 
//  440   unsigned char temp[10] = {0x21,0};
        MOV     DPL,?XSP + 0
        MOV     DPH,?XSP + 1
        MOV     R4,DPL
        MOV     R5,DPH
        MOV     DPH,#(`?<Constant {33, 0}>` >> 8) & 0xff
        MOV     DPL,#`?<Constant {33, 0}>` & 0xff
        MOV     A,#0xa
        LCALL   ?MOVE_LONG8_XDATA_XDATA
//  441 //  temp[0] = ADXL345_RD_Reg(0x00);
//  442 //  ADXL345_WR_Reg(0x1e, 0x45);
//  443 //  temp[1] = ADXL345_RD_Reg(0x1e);
//  444 //  ADXL345_WR_Reg(0x1f, 0x1f);
//  445 //  temp[2] = ADXL345_RD_Reg(0x1f);
//  446 //  ADXL345_WR_Reg(0x20, 0x20);
//  447 //  temp[3] = ADXL345_RD_Reg(0x20);
//  448   if ( AF_DataRequest( &SampleApp_Periodic_DstAddr, &SampleApp_epDesc,
//  449                          SAMPLEAPP_PERIODIC_CLUSTERID,
//  450                          5,
//  451                          temp,
//  452                          &SampleApp_TransID,
//  453                          AF_DISCV_ROUTE,
//  454                          AF_DEFAULT_RADIUS ) == afStatus_SUCCESS )
        ; Setup parameters for call to function AF_DataRequest
        MOV     ?V0 + 0,#0x1e
        MOV     R0,#?V0 + 0
        LCALL   ?PUSH_XSTACK_I_ONE
        CFI CFA_XSP16 add(XSP16, 21)
        MOV     ?V0 + 0,#SampleApp_TransID & 0xff
        MOV     ?V0 + 1,#(SampleApp_TransID >> 8) & 0xff
        MOV     R0,#?V0 + 0
        LCALL   ?PUSH_XSTACK_I_TWO
        CFI CFA_XSP16 add(XSP16, 23)
        MOV     A,#0x3
        LCALL   ?XSTACK_DISP0_8
        MOV     ?V0 + 0,DPL
        MOV     ?V0 + 1,DPH
        MOV     R0,#?V0 + 0
        LCALL   ?PUSH_XSTACK_I_TWO
        CFI CFA_XSP16 add(XSP16, 25)
        MOV     ?V0 + 0,#0x5
        MOV     ?V0 + 1,#0x0
        MOV     R0,#?V0 + 0
        LCALL   ?PUSH_XSTACK_I_TWO
        CFI CFA_XSP16 add(XSP16, 27)
        MOV     ?V0 + 0,#0x1
        MOV     R0,#?V0 + 0
        LCALL   ?PUSH_XSTACK_I_TWO
        CFI CFA_XSP16 add(XSP16, 29)
        MOV     R1,#0x20
        MOV     R4,#SampleApp_epDesc & 0xff
        MOV     R5,#(SampleApp_epDesc >> 8) & 0xff
        MOV     R2,#SampleApp_Periodic_DstAddr & 0xff
        MOV     R3,#(SampleApp_Periodic_DstAddr >> 8) & 0xff
        LCALL   ??AF_DataRequest?relay
        MOV     A,#0x9
        LCALL   ?DEALLOC_XSTACK8
        CFI CFA_XSP16 add(XSP16, 20)
//  455   {
//  456    
//  457 
//  458  //  SysPowerMode(3);
//  459   }
//  460   else
//  461   {
//  462     ;
//  463     }
//  464 
//  465 }
        MOV     A,#0xa
        LCALL   ?DEALLOC_XSTACK8
        CFI CFA_XSP16 add(XSP16, 10)
        LJMP    ?Subroutine0 & 0xFFFF
        CFI EndBlock cfiBlock5
//  466 extern void RF_off(void);
//  467 extern void RF_on(void);
//  468 extern int m_state;
//  469 #pragma vector = T1_VECTOR

        RSEG NEAR_CODE:CODE:NOROOT(0)
//  470  __interrupt void T1_ISR(void)
T1_ISR:
        CFI Block cfiBlock6 Using cfiCommon1
        CFI Function T1_ISR
        CODE
//  471  {
        FUNCALL T1_ISR, RF_on
        LOCFRAME ISTACK, 0, STACK
        LOCFRAME PSTACK, 0, STACK
        LOCFRAME XSTACK, 14, STACK
        LOCFRAME IOVERLAY, 0, STATIC
        LOCFRAME DOVERLAY, 0, STATIC
        ARGFRAME ISTACK, 0, STACK
        ARGFRAME PSTACK, 0, STACK
        ARGFRAME XSTACK, 14, STACK
        ARGFRAME IOVERLAY, 0, STATIC
        ARGFRAME DOVERLAY, 0, STATIC
        FUNCALL T1_ISR, RF_off
        LOCFRAME ISTACK, 0, STACK
        LOCFRAME PSTACK, 0, STACK
        LOCFRAME XSTACK, 14, STACK
        LOCFRAME IOVERLAY, 0, STATIC
        LOCFRAME DOVERLAY, 0, STATIC
        ARGFRAME ISTACK, 0, STACK
        ARGFRAME PSTACK, 0, STACK
        ARGFRAME XSTACK, 14, STACK
        ARGFRAME IOVERLAY, 0, STATIC
        ARGFRAME DOVERLAY, 0, STATIC
        PUSH    A
        CFI A Frame(CFA_SP, 3)
        CFI CFA_SP SP+-3
        MOV     A,#-0xe
        LCALL   ?INTERRUPT_ENTER_XSP
        CFI B load(1, XDATA, add(CFA_XSP16, literal(-1)))
        CFI VB load(1, XDATA, add(CFA_XSP16, literal(-2)))
        CFI PSW load(1, XDATA, add(CFA_XSP16, literal(-3)))
        CFI DPL0 load(1, XDATA, add(CFA_XSP16, literal(-4)))
        CFI DPH0 load(1, XDATA, add(CFA_XSP16, literal(-5)))
        CFI R7 load(1, XDATA, add(CFA_XSP16, literal(-6)))
        CFI R6 load(1, XDATA, add(CFA_XSP16, literal(-7)))
        CFI R5 load(1, XDATA, add(CFA_XSP16, literal(-8)))
        CFI R4 load(1, XDATA, add(CFA_XSP16, literal(-9)))
        CFI V0 load(1, XDATA, add(CFA_XSP16, literal(-10)))
        CFI R3 load(1, XDATA, add(CFA_XSP16, literal(-11)))
        CFI R2 load(1, XDATA, add(CFA_XSP16, literal(-12)))
        CFI R1 load(1, XDATA, add(CFA_XSP16, literal(-13)))
        CFI R0 load(1, XDATA, add(CFA_XSP16, literal(-14)))
        CFI CFA_XSP16 add(XSP16, 14)
        ; Saved register size: 14
        ; Auto size: 0
//  472     IRCON&=0xFD;
        CLR     0xc0.1
//  473     count++;
        MOV     DPTR,#count
        MOVX    A,@DPTR
        ADD     A,#0x1
        MOVX    @DPTR,A
        INC     DPTR
        MOVX    A,@DPTR
        ADDC    A,#0x0
        MOVX    @DPTR,A
//  474     if(count==4)//2√Î∫Ûπÿ±’
        MOV     DPTR,#count
        MOVX    A,@DPTR
        XRL     A,#0x4
        JNZ     ??T1_ISR_0
        INC     DPTR
        MOVX    A,@DPTR
??T1_ISR_0:
        JNZ     ??T1_ISR_1
//  475     {
//  476       RF_on();
        ; Setup parameters for call to function RF_on
        LCALL   ??RF_on?relay
        SJMP    ??T1_ISR_2
//  477     }else if(count == 8)
??T1_ISR_1:
        MOV     DPTR,#count
        MOVX    A,@DPTR
        XRL     A,#0x8
        JNZ     ??T1_ISR_3
        INC     DPTR
        MOVX    A,@DPTR
??T1_ISR_3:
        JNZ     ??T1_ISR_2
//  478     {
//  479       RF_off();
        ; Setup parameters for call to function RF_off
        LCALL   ??RF_off?relay
//  480       LED1=0;
        CLR     0xa0.0
//  481       m_state=0;
        MOV     DPTR,#m_state
        CLR     A
        MOVX    @DPTR,A
        INC     DPTR
        MOVX    @DPTR,A
//  482     }
//  483  }
??T1_ISR_2:
        MOV     R7,#0x1
        LJMP    ?INTERRUPT_LEAVE_XSP
        CFI EndBlock cfiBlock6
        REQUIRE _A_IRCON
        REQUIRE _A_P2
//  484 /*********************************************************************
//  485  * @fn      SampleApp_SendFlashMessage
//  486  *
//  487  * @brief   Send the flash message to group 1.
//  488  *
//  489  * @param   flashTime - in milliseconds
//  490  *
//  491  * @return  none
//  492  */

        RSEG BANKED_CODE:CODE:NOROOT(0)
//  493 void SampleApp_SendFlashMessage( uint16 flashTime )
SampleApp_SendFlashMessage:
        CFI Block cfiBlock7 Using cfiCommon0
        CFI Function SampleApp_SendFlashMessage
        CODE
//  494 {
        FUNCALL SampleApp_SendFlashMessage, AF_DataRequest
        LOCFRAME ISTACK, 0, STACK
        LOCFRAME PSTACK, 0, STACK
        LOCFRAME XSTACK, 19, STACK
        LOCFRAME IOVERLAY, 0, STATIC
        LOCFRAME DOVERLAY, 0, STATIC
        ARGFRAME ISTACK, 0, STACK
        ARGFRAME PSTACK, 0, STACK
        ARGFRAME XSTACK, 19, STACK
        ARGFRAME IOVERLAY, 0, STATIC
        ARGFRAME DOVERLAY, 0, STATIC
        FUNCALL SampleApp_SendFlashMessage, HalLedSet
        LOCFRAME ISTACK, 0, STACK
        LOCFRAME PSTACK, 0, STACK
        LOCFRAME XSTACK, 10, STACK
        LOCFRAME IOVERLAY, 0, STATIC
        LOCFRAME DOVERLAY, 0, STATIC
        ARGFRAME ISTACK, 0, STACK
        ARGFRAME PSTACK, 0, STACK
        ARGFRAME XSTACK, 10, STACK
        ARGFRAME IOVERLAY, 0, STATIC
        ARGFRAME DOVERLAY, 0, STATIC
        FUNCALL SampleApp_SendFlashMessage, HalLedSet
        LOCFRAME ISTACK, 0, STACK
        LOCFRAME PSTACK, 0, STACK
        LOCFRAME XSTACK, 10, STACK
        LOCFRAME IOVERLAY, 0, STATIC
        LOCFRAME DOVERLAY, 0, STATIC
        ARGFRAME ISTACK, 0, STACK
        ARGFRAME PSTACK, 0, STACK
        ARGFRAME XSTACK, 10, STACK
        ARGFRAME IOVERLAY, 0, STATIC
        ARGFRAME DOVERLAY, 0, STATIC
        MOV     A,#-0xa
        LCALL   ?BANKED_ENTER_XDATA
        CFI DPH0 load(1, XDATA, add(CFA_XSP16, literal(-1)))
        CFI DPL0 load(1, XDATA, add(CFA_XSP16, literal(-2)))
        CFI ?BRET_EXT load(1, XDATA, add(CFA_XSP16, literal(-3)))
        CFI ?RET_HIGH load(1, XDATA, add(CFA_XSP16, literal(-4)))
        CFI ?RET_LOW load(1, XDATA, add(CFA_XSP16, literal(-5)))
        CFI R7 load(1, XDATA, add(CFA_XSP16, literal(-6)))
        CFI V1 load(1, XDATA, add(CFA_XSP16, literal(-7)))
        CFI V0 load(1, XDATA, add(CFA_XSP16, literal(-8)))
        CFI VB load(1, XDATA, add(CFA_XSP16, literal(-9)))
        CFI R6 load(1, XDATA, add(CFA_XSP16, literal(-10)))
        CFI CFA_SP SP+0
        CFI CFA_XSP16 add(XSP16, 10)
        ; Saved register size: 10
        ; Auto size: 0
//  495   LedState = ~LedState;
        MOV     DPTR,#LedState
        MOVX    A,@DPTR
        CPL     A
        MOVX    @DPTR,A
//  496   
//  497   if ( AF_DataRequest( &SampleApp_Flash_DstAddr, &SampleApp_epDesc,
//  498                        SAMPLEAPP_FLASH_CLUSTERID,
//  499                        1,
//  500                        &LedState,
//  501                        &SampleApp_TransID,
//  502                        AF_DISCV_ROUTE,
//  503                        AF_DEFAULT_RADIUS ) == afStatus_SUCCESS )
        ; Setup parameters for call to function AF_DataRequest
        MOV     ?V0 + 0,#0x1e
        MOV     R0,#?V0 + 0
        LCALL   ?PUSH_XSTACK_I_ONE
        CFI CFA_XSP16 add(XSP16, 11)
        MOV     ?V0 + 0,#SampleApp_TransID & 0xff
        MOV     ?V0 + 1,#(SampleApp_TransID >> 8) & 0xff
        MOV     R0,#?V0 + 0
        LCALL   ?PUSH_XSTACK_I_TWO
        CFI CFA_XSP16 add(XSP16, 13)
        MOV     ?V0 + 0,#LedState & 0xff
        MOV     ?V0 + 1,#(LedState >> 8) & 0xff
        MOV     R0,#?V0 + 0
        LCALL   ?PUSH_XSTACK_I_TWO
        CFI CFA_XSP16 add(XSP16, 15)
        MOV     ?V0 + 0,#0x1
        MOV     ?V0 + 1,#0x0
        MOV     R0,#?V0 + 0
        LCALL   ?PUSH_XSTACK_I_TWO
        CFI CFA_XSP16 add(XSP16, 17)
        MOV     ?V0 + 0,#0x2
        MOV     R0,#?V0 + 0
        LCALL   ?PUSH_XSTACK_I_TWO
        CFI CFA_XSP16 add(XSP16, 19)
        MOV     R1,#0x20
        MOV     R4,#SampleApp_epDesc & 0xff
        MOV     R5,#(SampleApp_epDesc >> 8) & 0xff
        MOV     R2,#SampleApp_Flash_DstAddr & 0xff
        MOV     R3,#(SampleApp_Flash_DstAddr >> 8) & 0xff
        LCALL   ??AF_DataRequest?relay
        MOV     A,#0x9
        LCALL   ?DEALLOC_XSTACK8
        CFI CFA_XSP16 add(XSP16, 10)
        MOV     A,R1
        JNZ     ??SampleApp_SendFlashMessage_0
//  504   {
//  505     if(LedState == 0)
        MOV     DPTR,#LedState
        MOVX    A,@DPTR
        JNZ     ??SampleApp_SendFlashMessage_1
//  506       HalLedSet(HAL_LED_1, HAL_LED_MODE_ON);  
        ; Setup parameters for call to function HalLedSet
        MOV     R2,#0x1
        SJMP    ??SampleApp_SendFlashMessage_2
//  507     else
//  508       HalLedSet(HAL_LED_1, HAL_LED_MODE_OFF); 
??SampleApp_SendFlashMessage_1:
        ; Setup parameters for call to function HalLedSet
        MOV     R2,#0x0
??SampleApp_SendFlashMessage_2:
        MOV     R1,#0x1
        LCALL   ??HalLedSet?relay
//  509   }
//  510   else
//  511   {
//  512     // Error occurred in request to send.
//  513   }
//  514 }
??SampleApp_SendFlashMessage_0:
        LJMP    ?Subroutine0 & 0xFFFF
        CFI EndBlock cfiBlock7

        COMMON INTVEC:CODE:ROOT(0)
        ORG 75
`??T1_ISR??INTVEC 75`:
        LJMP       (T1_ISR)

        RSEG BANK_RELAYS:CODE:REORDER:NOROOT(0)
??SampleApp_Init?relay:
        LCALL   ?BDISPATCH
        DATA
        DC24    SampleApp_Init

        RSEG BANK_RELAYS:CODE:REORDER:NOROOT(0)
??SampleApp_ProcessEvent?relay:
        LCALL   ?BDISPATCH
        DATA
        DC24    SampleApp_ProcessEvent

        RSEG BANK_RELAYS:CODE:REORDER:NOROOT(0)
??SampleApp_HandleKeys?relay:
        LCALL   ?BDISPATCH
        DATA
        DC24    SampleApp_HandleKeys

        RSEG BANK_RELAYS:CODE:REORDER:NOROOT(0)
??SampleApp_MessageMSGCB?relay:
        LCALL   ?BDISPATCH
        DATA
        DC24    SampleApp_MessageMSGCB

        RSEG BANK_RELAYS:CODE:REORDER:NOROOT(0)
??SampleApp_SendPeriodicMessage?relay:
        LCALL   ?BDISPATCH
        DATA
        DC24    SampleApp_SendPeriodicMessage

        RSEG BANK_RELAYS:CODE:REORDER:NOROOT(0)
??SampleApp_SendFlashMessage?relay:
        LCALL   ?BDISPATCH
        DATA
        DC24    SampleApp_SendFlashMessage

        RSEG XDATA_ROM_C:CONST:REORDER:NOROOT(0)
        DATA8
`?<Constant "Group 1">`:
        DB "Group 1"

        RSEG XDATA_ROM_C:CONST:REORDER:NOROOT(0)
        DATA8
`?<Constant "SampleApp">`:
        DB "SampleApp"

        RSEG XDATA_ROM_C:CONST:REORDER:NOROOT(0)
        DATA8
`?<Constant {33, 0}>`:
        DB 33
        DB 0
        DB 0, 0, 0, 0, 0, 0, 0, 0

        END
//  515 
//  516 /*********************************************************************
//  517 *********************************************************************/
// 
// 676 bytes in segment BANKED_CODE
//  36 bytes in segment BANK_RELAYS
//   3 bytes in segment INTVEC
//  67 bytes in segment NEAR_CODE
//   2 bytes in segment SFR_AN
//  44 bytes in segment XDATA_ROM_C
//  61 bytes in segment XDATA_Z
// 
// 779 bytes of CODE  memory (+ 3 bytes shared)
//  44 bytes of CONST memory
//   0 bytes of DATA  memory (+ 2 bytes shared)
//  61 bytes of XDATA memory
//
//Errors: none
//Warnings: none
